(dp0
S'crawled'
p1
I0
sS'name'
p2
S'Andr\xc3\xa9 Onana'
p3
sS'slug'
p4
S'andre-onana'
p5
s.(dp0
S'crawled'
p1
I0
sS'name'
p2
S'Benjamin van Lee'
p3
sS'slug'
p4
S'benjamin-van-leer'
p5
s.(dp0
S'crawled'
p1
I0
sS'name'
p2
S'Norbert Alblas'
p3
sS'slug'
p4
S'norbert-alblas'
p5
s.(dp0
S'crawled'
p1
I0
sS'name'
p2
S'Kostas Lamprou'
p3
sS'slug'
p4
S'kostas-lamprou'
p5
s.(dp0
S'crawled'
p1
I0
sS'name'
p2
S'Jo\xc3\xabl Veltman'
p3
sS'slug'
p4
S'joel-veltman'
p5
s.(dp0
S'crawled'
p1
I0
sS'name'
p2
S'Matthijs de Ligt'
p3
sS'slug'
p4
S'matthijs-de-ligt'
p5
s.(dp0
S'crawled'
p1
I0
sS'name'
p2
S'Maximilian W\xc3\xb6be'
p3
sS'slug'
p4
S'maximilian-wober'
p5
s.(dp0
S'crawled'
p1
I0
sS'name'
p2
S'Davinson S\xc3\xa1nche'
p3
sS'slug'
p4
S'davinson-sanchez'
p5
s.(dp0
S'crawled'
p1
I0
sS'name'
p2
S'Daley Sinkgraven'
p3
sS'slug'
p4
S'daley-sinkgraven'
p5
s.(dp0
S'crawled'
p1
I0
sS'name'
p2
S'Nick Viergever'
p3
sS'slug'
p4
S'nick-viergever'
p5
s.(dp0
S'crawled'
p1
I0
sS'name'
p2
S'Luis Orejuela'
p3
sS'slug'
p4
S'mitchell-dijks'
p5
s.(dp0
S'crawled'
p1
I0
sS'name'
p2
S'Nicol\xc3\xa1s Tagliaf'
p3
sS'slug'
p4
S'rasmus-nissen-kristensen'
p5
s.(dp0
S'crawled'
p1
I0
sS'name'
p2
S'Mitchell Dijks'
p3
sS'slug'
p4
S'donny-van-de-beek'
p5
s.(dp0
S'crawled'
p1
I0
sS'name'
p2
S'Leon Bergsma'
p3
sS'slug'
p4
S'hakim-ziyech'
p5
s.(dp0
S'crawled'
p1
I0
sS'name'
p2
S'Rasmus Kristense'
p3
sS'slug'
p4
S'robert-muric'
p5
s.(dp0
S'crawled'
p1
I0
sS'name'
p2
S'Mitchel Bakker'
p3
sS'slug'
p4
S'lasse-schone'
p5
s.(dp0
S'crawled'
p1
I0
sS'name'
p2
S'Noa Lang'
p3
sS'slug'
p4
S'frenkie-de-jong'
p5
s.(dp0
S'crawled'
p1
I0
sS'name'
p2
S'Donny van de Bee'
p3
sS'slug'
p4
S'siem-de-jong'
p5
s.(dp0
S'crawled'
p1
I0
sS'name'
p2
S'Hakim Ziyech'
p3
sS'slug'
p4
S'klaas-jan-huntelaar'
p5
s.(dp0
S'crawled'
p1
I0
sS'name'
p2
S'Carel Eiting'
p3
sS'slug'
p4
S'amin-younes'
p5
s.(dp0
S'crawled'
p1
I0
sS'name'
p2
S'Robert Muric'
p3
sS'slug'
p4
S'vaclav-cerny'
p5
s.(dp0
S'crawled'
p1
I0
sS'name'
p2
S'Lasse Sch\xc3\xb6ne'
p3
sS'slug'
p4
S'mateo-cassierra'
p5
s.(dp0
S'crawled'
p1
I0
sS'name'
p2
S'Frenkie de Jong'
p3
sS'slug'
p4
S'kasper-dolberg'
p5
s.(dp0
S'crawled'
p1
I0
sS'name'
p2
S'Kenneth Vermeer'
p3
sS'slug'
p4
S'kenneth-vermeer'
p5
s.(dp0
S'crawled'
p1
I0
sS'name'
p2
S'Justin Bijlow'
p3
sS'slug'
p4
S'justin-bijlow'
p5
s.(dp0
S'crawled'
p1
I0
sS'name'
p2
S'Brad Jones'
p3
sS'slug'
p4
S'brad-jones'
p5
s.(dp0
S'crawled'
p1
I0
sS'name'
p2
S'Ram\xc3\xb3n ten Hove'
p3
sS'slug'
p4
S'ramon-ten-hove'
p5
s.(dp0
S'crawled'
p1
I0
sS'name'
p2
S'Elber Evora'
p3
sS'slug'
p4
S'miquel-nelom'
p5
s.(dp0
S'crawled'
p1
I0
sS'name'
p2
S'Jordie Van Leeuw'
p3
sS'slug'
p4
S'bart-nieuwkoop'
p5
s.(dp0
S'crawled'
p1
I0
sS'name'
p2
S'Miquel Nelom'
p3
sS'slug'
p4
S'sven-van-beek'
p5
s.(dp0
S'crawled'
p1
I0
sS'name'
p2
S'Lutsharel Geertr'
p3
sS'slug'
p4
S'jerry-st.-juste'
p5
s.(dp0
S'crawled'
p1
I0
sS'name'
p2
S'Bart Nieuwkoop'
p3
sS'slug'
p4
S'ridgeciano-haps'
p5
s.(dp0
S'crawled'
p1
I0
sS'name'
p2
S'Sven van Beek'
p3
sS'slug'
p4
S'jan-arie-van-der-heijden'
p5
s.(dp0
S'crawled'
p1
I0
sS'name'
p2
S'Jeremiah St. Jus'
p3
sS'slug'
p4
S'kevin-diks'
p5
s.(dp0
S'crawled'
p1
I0
sS'name'
p2
S'Ridgeciano Haps'
p3
sS'slug'
p4
S'renato-tapia'
p5
s.(dp0
S'crawled'
p1
I0
sS'name'
p2
S'Jan-Arie van der'
p3
sS'slug'
p4
S'eric-botteghin'
p5
s.(dp0
S'crawled'
p1
I0
sS'name'
p2
S'Boyd Reith'
p3
sS'slug'
p4
S'tyrell-malacia'
p5
s.(dp0
S'crawled'
p1
I0
sS'name'
p2
S'Noah Lewis'
p3
sS'slug'
p4
S'karim-el-ahmadi'
p5
s.(dp0
S'crawled'
p1
I0
sS'name'
p2
S'Kevin Diks'
p3
sS'slug'
p4
S'tonny-vilhena'
p5
s.(dp0
S'crawled'
p1
I0
sS'name'
p2
S'Renato Tapia'
p3
sS'slug'
p4
S'sofyan-amrabat'
p5
s.(dp0
S'crawled'
p1
I0
sS'name'
p2
S'Eric Botteghin'
p3
sS'slug'
p4
S'jens-toornstra'
p5
s.(dp0
S'crawled'
p1
I0
sS'name'
p2
S'Tyrell Malacia'
p3
sS'slug'
p4
S'emil-hansson'
p5
s.(dp0
S'crawled'
p1
I0
sS'name'
p2
S'Karim El Ahmadi'
p3
sS'slug'
p4
S'jordy-wehrmann'
p5
s.(dp0
S'crawled'
p1
I0
sS'name'
p2
S'Tonny Vilhena'
p3
sS'slug'
p4
S'michiel-kramer'
p5
s.(dp0
S'crawled'
p1
I0
sS'name'
p2
S'Sofyan Amrabat'
p3
sS'slug'
p4
S'jean-paul-boetius'
p5
s.(dp0
S'crawled'
p1
I0
sS'name'
p2
S'Jens Toornstra'
p3
sS'slug'
p4
S'nicolai-jorgensen'
p5
s.(dp0
S'crawled'
p1
I0
sS'name'
p2
S'Emil Hansson'
p3
sS'slug'
p4
S'sam-larsson'
p5
s.(dp0
S'crawled'
p1
I0
sS'name'
p2
S'Jordy Wehrmann'
p3
sS'slug'
p4
S'bilal-basacikoglu'
p5
s.(dp0
S'crawled'
p1
I0
sS'name'
p2
S'Michiel Kramer'
p3
sS'slug'
p4
S'steven-berghuis'
p5
s.(dp0
S'crawled'
p1
I0
sS'name'
p2
S'Jean-Paul Bo\xc3\xabti'
p3
sS'slug'
p4
S'robin-van-persie'
p5
s.(dp0
S'crawled'
p1
I0
sS'name'
p2
S'Nicolai J\xc3\xb8rgens'
p3
sS'slug'
p4
S'dylan-vente'
p5
s.(dp0
S'crawled'
p1
I0
sS'name'
p2
S'Sam Larsson'
p3
sS'slug'
p4
S'cheick-toure-toure'
p5
s.(dp0
S'crawled'
p1
I0
sS'name'
p2
S'Roman Weidenfell'
p3
sS'slug'
p4
S'roman-weidenfeller'
p5
s.(dp0
S'crawled'
p1
I0
sS'name'
p2
S'Dominik Reimann'
p3
sS'slug'
p4
S'dominik-reimann'
p5
s.(dp0
S'crawled'
p1
I0
sS'name'
p2
S'Roman B\xc3\xbcrki'
p3
sS'slug'
p4
S'roman-burki'
p5
s.(dp0
S'crawled'
p1
I0
sS'name'
p2
S'Dan-Axel Zagadou'
p3
sS'slug'
p4
S'dan-axel-zagadou'
p5
s.(dp0
S'crawled'
p1
I0
sS'name'
p2
S'Neven Subotic'
p3
sS'slug'
p4
S'neven-subotic'
p5
s.(dp0
S'crawled'
p1
I0
sS'name'
p2
S'Marc Bartra'
p3
sS'slug'
p4
S'marc-bartra'
p5
s.(dp0
S'crawled'
p1
I0
sS'name'
p2
S'Raphael Guerreir'
p3
sS'slug'
p4
S'raphael-guerreiro'
p5
s.(dp0
S'crawled'
p1
I0
sS'name'
p2
S'Jeremy Toljan'
p3
sS'slug'
p4
S'jeremy-toljan'
p5
s.(dp0
S'crawled'
p1
I0
sS'name'
p2
S'Manuel Akanji'
p3
sS'slug'
p4
S'manuel-akanji'
p5
s.(dp0
S'crawled'
p1
I0
sS'name'
p2
S'Jan-Niklas Beste'
p3
sS'slug'
p4
S'jan-niklas-beste'
p5
s.(dp0
S'crawled'
p1
I0
sS'name'
p2
S'Sokratis'
p3
sS'slug'
p4
S'sokratis'
p5
s.(dp0
S'crawled'
p1
I0
sS'name'
p2
S'Lukasz Piszczek'
p3
sS'slug'
p4
S'lukasz-piszczek'
p5
s.(dp0
S'crawled'
p1
I0
sS'name'
p2
S'Marcel Schmelzer'
p3
sS'slug'
p4
S'marcel-schmelzer'
p5
s.(dp0
S'crawled'
p1
I0
sS'name'
p2
S'\xc3\x96mer Toprak'
p3
sS'slug'
p4
S'omer-toprak'
p5
s.(dp0
S'crawled'
p1
I0
sS'name'
p2
S'Erik Durm'
p3
sS'slug'
p4
S'erik-durm'
p5
s.(dp0
S'crawled'
p1
I0
sS'name'
p2
S'Jadon Sancho'
p3
sS'slug'
p4
S'nuri-sahin'
p5
s.(dp0
S'crawled'
p1
I0
sS'name'
p2
S'Nuri Sahin'
p3
sS'slug'
p4
S'mario-gotze'
p5
s.(dp0
S'crawled'
p1
I0
sS'name'
p2
S'Mario G\xc3\xb6tze'
p3
sS'slug'
p4
S'sebastian-rode'
p5
s.(dp0
S'crawled'
p1
I0
sS'name'
p2
S'Sebastian Rode'
p3
sS'slug'
p4
S'mahmoud-dahoud'
p5
s.(dp0
S'crawled'
p1
I0
sS'name'
p2
S'Mahmoud Dahoud'
p3
sS'slug'
p4
S'andre-schurrle'
p5
s.(dp0
S'crawled'
p1
I0
sS'name'
p2
S'Andr\xc3\xa9 Sch\xc3\xbcrrle'
p3
sS'slug'
p4
S'christian-pulisic'
p5
s.(dp0
S'crawled'
p1
I0
sS'name'
p2
S'Christian Pulisi'
p3
sS'slug'
p4
S'shinji-kagawa'
p5
s.(dp0
S'crawled'
p1
I0
sS'name'
p2
S'Shinji Kagawa'
p3
sS'slug'
p4
S'gonzalo-castro-castro'
p5
s.(dp0
S'crawled'
p1
I0
sS'name'
p2
S'Gonzalo Castro'
p3
sS'slug'
p4
S'julian-weigl'
p5
s.(dp0
S'crawled'
p1
I0
sS'name'
p2
S'Julian Weigl'
p3
sS'slug'
p4
S'andriy-yarmolenko'
p5
s.(dp0
S'crawled'
p1
I0
sS'name'
p2
S'Andriy Yarmolenk'
p3
sS'slug'
p4
S'marco-reus'
p5
s.(dp0
S'crawled'
p1
I0
sS'name'
p2
S'Marco Reus'
p3
sS'slug'
p4
S'alexander-isak'
p5
s.(dp0
S'crawled'
p1
I0
sS'name'
p2
S'Alexander Isak'
p3
sS'slug'
p4
S'maximilian-philipp'
p5
s.(dp0
S'crawled'
p1
I0
sS'name'
p2
S'Maximilian Phili'
p3
sS'slug'
p4
S'jacob-bruun-larsen'
p5
s.(dp0
S'crawled'
p1
I0
sS'name'
p2
S'Jacob Bruun Lars'
p3
sS'slug'
p4
S'michy-batshuayi'
p5
s.(dp0
S'crawled'
p1
I0
sS'name'
p2
S'Manuel Neuer'
p3
sS'slug'
p4
S'manuel-neuer'
p5
s.(dp0
S'crawled'
p1
I0
sS'name'
p2
S'Tom Starke'
p3
sS'slug'
p4
S'tom-starke'
p5
s.(dp0
S'crawled'
p1
I0
sS'name'
p2
S'Sven Ulreich'
p3
sS'slug'
p4
S'sven-ulreich'
p5
s.(dp0
S'crawled'
p1
I0
sS'name'
p2
S'Christian Fr\xc3\xbcch'
p3
sS'slug'
p4
S'christian-fruchtl'
p5
s.(dp0
S'crawled'
p1
I0
sS'name'
p2
S'Leo Weinkauf'
p3
sS'slug'
p4
S'niklas-sule'
p5
s.(dp0
S'crawled'
p1
I0
sS'name'
p2
S'Ron-Thorben Hoff'
p3
sS'slug'
p4
S'mats-hummels'
p5
s.(dp0
S'crawled'
p1
I0
sS'name'
p2
S'Niklas Tarnat'
p3
sS'slug'
p4
S'javi-martinez'
p5
s.(dp0
S'crawled'
p1
I0
sS'name'
p2
S'Resul T\xc3\xbcrkkales'
p3
sS'slug'
p4
S'rafinha'
p5
s.(dp0
S'crawled'
p1
I0
sS'name'
p2
S'Theo Rieg'
p3
sS'slug'
p4
S'juan-bernat'
p5
s.(dp0
S'crawled'
p1
I0
sS'name'
p2
S'Alexander Nitzl'
p3
sS'slug'
p4
S'jerome-boateng'
p5
s.(dp0
S'crawled'
p1
I0
sS'name'
p2
S'Derrick Kohn'
p3
sS'slug'
p4
S'felix-gotze'
p5
s.(dp0
S'crawled'
p1
I0
sS'name'
p2
S'Niklas S\xc3\xbcle'
p3
sS'slug'
p4
S'david-alaba'
p5
s.(dp0
S'crawled'
p1
I0
sS'name'
p2
S'Mats Hummels'
p3
sS'slug'
p4
S'marco-friedl'
p5
s.(dp0
S'crawled'
p1
I0
sS'name'
p2
S'Javi Mart\xc3\xadnez'
p3
sS'slug'
p4
S'thiago-alcantara'
p5
s.(dp0
S'crawled'
p1
I0
sS'name'
p2
S'Rafinha'
p3
sS'slug'
p4
S'franck-ribery'
p5
s.(dp0
S'crawled'
p1
I0
sS'name'
p2
S'Juan Bernat'
p3
sS'slug'
p4
S'arjen-robben'
p5
s.(dp0
S'crawled'
p1
I0
sS'name'
p2
S'Lukas Mai'
p3
sS'slug'
p4
S'james-rodriguez'
p5
s.(dp0
S'crawled'
p1
I0
sS'name'
p2
S'J\xc3\xa9r\xc3\xb4me Boateng'
p3
sS'slug'
p4
S'sebastian-rudy'
p5
s.(dp0
S'crawled'
p1
I0
sS'name'
p2
S'Felix G\xc3\xb6tze'
p3
sS'slug'
p4
S'arturo-vidal'
p5
s.(dp0
S'crawled'
p1
I0
sS'name'
p2
S'David Alaba'
p3
sS'slug'
p4
S'corentin-tolisso'
p5
s.(dp0
S'crawled'
p1
I0
sS'name'
p2
S'Marco Friedl'
p3
sS'slug'
p4
S'niklas-dorsch'
p5
s.(dp0
S'crawled'
p1
I0
sS'name'
p2
S'Maximilian Franz'
p3
sS'slug'
p4
S'joshua-kimmich'
p5
s.(dp0
S'crawled'
p1
I0
sS'name'
p2
S'Raphael Obermair'
p3
sS'slug'
p4
S'timothy-tillman'
p5
s.(dp0
S'crawled'
p1
I0
sS'name'
p2
S'Marin Pudic'
p3
sS'slug'
p4
S'renato-sanches'
p5
s.(dp0
S'crawled'
p1
I0
sS'name'
p2
S'Thiago Alc\xc3\xa1ntar'
p3
sS'slug'
p4
S'fabian-benko'
p5
s.(dp0
S'crawled'
p1
I0
sS'name'
p2
S'Franck Rib\xc3\xa9ry'
p3
sS'slug'
p4
S'mario-crnicki'
p5
s.(dp0
S'crawled'
p1
I0
sS'name'
p2
S'Arjen Robben'
p3
sS'slug'
p4
S'robert-lewandowski'
p5
s.(dp0
S'crawled'
p1
I0
sS'name'
p2
S'James Rodr\xc3\xadguez'
p3
sS'slug'
p4
S'sandro-wagner'
p5
s.(dp0
S'crawled'
p1
I0
sS'name'
p2
S'Meritan Shabani'
p3
sS'slug'
p4
S'thomas-muller'
p5
s.(dp0
S'crawled'
p1
I0
sS'name'
p2
S'Sebastian Rudy'
p3
sS'slug'
p4
S'kingsley-coman'
p5
s.(dp0
S'crawled'
p1
I0
sS'name'
p2
S'Arturo Vidal'
p3
sS'slug'
p4
S'milos-pantovic'
p5
s.(dp0
S'crawled'
p1
I0
sS'name'
p2
S'Jan Oblak'
p3
sS'slug'
p4
S'jan-oblak'
p5
s.(dp0
S'crawled'
p1
I0
sS'name'
p2
S'Axel Werner'
p3
sS'slug'
p4
S'axel-werner'
p5
s.(dp0
S'crawled'
p1
I0
sS'name'
p2
S'Miguel San Rom\xc3\xa1'
p3
sS'slug'
p4
S'diego-godin'
p5
s.(dp0
S'crawled'
p1
I0
sS'name'
p2
S'Alex Dos Santos'
p3
sS'slug'
p4
S'filipe-luis'
p5
s.(dp0
S'crawled'
p1
I0
sS'name'
p2
S'Diego God\xc3\xadn'
p3
sS'slug'
p4
S'stefan-savic'
p5
s.(dp0
S'crawled'
p1
I0
sS'name'
p2
S'Filipe Lu\xc3\xads'
p3
sS'slug'
p4
S'sime-vrsaljko'
p5
s.(dp0
S'crawled'
p1
I0
sS'name'
p2
S'Stefan Savic'
p3
sS'slug'
p4
S'lucas-hernandez'
p5
s.(dp0
S'crawled'
p1
I0
sS'name'
p2
S'Sime Vrsaljko'
p3
sS'slug'
p4
S'juanfran-torres-belen'
p5
s.(dp0
S'crawled'
p1
I0
sS'name'
p2
S'Lucas Hern\xc3\xa1ndez'
p3
sS'slug'
p4
S'gimenez'
p5
s.(dp0
S'crawled'
p1
I0
sS'name'
p2
S'Juanfran'
p3
sS'slug'
p4
S'sergi'
p5
s.(dp0
S'crawled'
p1
I0
sS'name'
p2
S'Jos\xc3\xa9 Gim\xc3\xa9nez'
p3
sS'slug'
p4
S'thomas-partey'
p5
s.(dp0
S'crawled'
p1
I0
sS'name'
p2
S'Sergi Gonz\xc3\xa1lez'
p3
sS'slug'
p4
S'koke'
p5
s.(dp0
S'crawled'
p1
I0
sS'name'
p2
S'Carlos Isaac'
p3
sS'slug'
p4
S'saul-niguez'
p5
s.(dp0
S'crawled'
p1
I0
sS'name'
p2
S'Antonio Montoro'
p3
sS'slug'
p4
S'yannick-carrasco'
p5
s.(dp0
S'crawled'
p1
I0
sS'name'
p2
S'Thomas Partey'
p3
sS'slug'
p4
S'augusto-fernandez'
p5
s.(dp0
S'crawled'
p1
I0
sS'name'
p2
S'Koke'
p3
sS'slug'
p4
S'gabi'
p5
s.(dp0
S'crawled'
p1
I0
sS'name'
p2
S'Sa\xc3\xbal \xc3\x91\xc3\xadguez'
p3
sS'slug'
p4
S'nicolas-gaitan'
p5
s.(dp0
S'crawled'
p1
I0
sS'name'
p2
S'Yannick Carrasco'
p3
sS'slug'
p4
S'vitolo'
p5
s.(dp0
S'crawled'
p1
I0
sS'name'
p2
S'Augusto Fern\xc3\xa1nd'
p3
sS'slug'
p4
S'juan-moreno'
p5
s.(dp0
S'crawled'
p1
I0
sS'name'
p2
S'Gabi'
p3
sS'slug'
p4
S'antoine-griezmann'
p5
s.(dp0
S'crawled'
p1
I0
sS'name'
p2
S'Nicol\xc3\xa1s Gait\xc3\xa1n'
p3
sS'slug'
p4
S'luciano-vietto'
p5
s.(dp0
S'crawled'
p1
I0
sS'name'
p2
S'Vitolo'
p3
sS'slug'
p4
S'fernando-torres'
p5
s.(dp0
S'crawled'
p1
I0
sS'name'
p2
S'Juan Moreno'
p3
sS'slug'
p4
S'angel-correa'
p5
s.(dp0
S'crawled'
p1
I0
sS'name'
p2
S'Keidi Bare'
p3
sS'slug'
p4
S'diego-costa'
p5
s.(dp0
S'crawled'
p1
I0
sS'name'
p2
S'Roberto Olabe'
p3
sS'slug'
p4
S'kevin-gameiro'
p5
s.(dp0
S'crawled'
p1
I0
sS'name'
p2
S'Sergio Rico'
p3
sS'slug'
p4
S'sergio-rico'
p5
s.(dp0
S'crawled'
p1
I0
sS'name'
p2
S'David Soria'
p3
sS'slug'
p4
S'david-soria'
p5
s.(dp0
S'crawled'
p1
I0
sS'name'
p2
S'Juan Soriano'
p3
sS'slug'
p4
S'juan-soriano'
p5
s.(dp0
S'crawled'
p1
I0
sS'name'
p2
S'Lionel Carole'
p3
sS'slug'
p4
S'lionel-carole'
p5
s.(dp0
S'crawled'
p1
I0
sS'name'
p2
S'S\xc3\xa9bastien Corch'
p3
sS'slug'
p4
S'sebastien-corchia'
p5
s.(dp0
S'crawled'
p1
I0
sS'name'
p2
S'Simon Kjaer'
p3
sS'slug'
p4
S'simon-kjaer'
p5
s.(dp0
S'crawled'
p1
I0
sS'name'
p2
S'Cl\xc3\xa9ment Lenglet'
p3
sS'slug'
p4
S'clement-lenglet'
p5
s.(dp0
S'crawled'
p1
I0
sS'name'
p2
S'Daniel Carri\xc3\xa7o'
p3
sS'slug'
p4
S'daniel-carrico'
p5
s.(dp0
S'crawled'
p1
I0
sS'name'
p2
S'Guilherme Arana'
p3
sS'slug'
p4
S'guilherme-arana'
p5
s.(dp0
S'crawled'
p1
I0
sS'name'
p2
S'Sergio Escudero'
p3
sS'slug'
p4
S'sergio-escudero'
p5
s.(dp0
S'crawled'
p1
I0
sS'name'
p2
S'Miguel Lay\xc3\xban'
p3
sS'slug'
p4
S'miguel-layun'
p5
s.(dp0
S'crawled'
p1
I0
sS'name'
p2
S'Nico Pareja'
p3
sS'slug'
p4
S'nico-pareja'
p5
s.(dp0
S'crawled'
p1
I0
sS'name'
p2
S'Gabriel Mercado'
p3
sS'slug'
p4
S'gabriel-mercado'
p5
s.(dp0
S'crawled'
p1
I0
sS'name'
p2
S'Roque Mesa'
p3
sS'slug'
p4
S'roque'
p5
s.(dp0
S'crawled'
p1
I0
sS'name'
p2
S'Walter Montoya'
p3
sS'slug'
p4
S'walter-montoya'
p5
s.(dp0
S'crawled'
p1
I0
sS'name'
p2
S'\xc3\x89ver Banega'
p3
sS'slug'
p4
S'ever-banega'
p5
s.(dp0
S'crawled'
p1
I0
sS'name'
p2
S'Ganso'
p3
sS'slug'
p4
S'ganso'
p5
s.(dp0
S'crawled'
p1
I0
sS'name'
p2
S'Joaqu\xc3\xadn Correa'
p3
sS'slug'
p4
S'joaquin-correa'
p5
s.(dp0
S'crawled'
p1
I0
sS'name'
p2
S'Johannes Geis'
p3
sS'slug'
p4
S'johannes-geis'
p5
s.(dp0
S'crawled'
p1
I0
sS'name'
p2
S'Michael Krohn-De'
p3
sS'slug'
p4
S'michael-krohn-dehli'
p5
s.(dp0
S'crawled'
p1
I0
sS'name'
p2
S'Guido Pizarro'
p3
sS'slug'
p4
S'guido-pizarro'
p5
s.(dp0
S'crawled'
p1
I0
sS'name'
p2
S"Steven N'Zonzi"
p3
sS'slug'
p4
S'steven-nzonzi'
p5
s.(dp0
S'crawled'
p1
I0
sS'name'
p2
S'Jes\xc3\xbas Navas'
p3
sS'slug'
p4
S'jesus-navas'
p5
s.(dp0
S'crawled'
p1
I0
sS'name'
p2
S'Pablo Sarabia'
p3
sS'slug'
p4
S'pablo-sarabia'
p5
s.(dp0
S'crawled'
p1
I0
sS'name'
p2
S'Franco V\xc3\xa1zquez'
p3
sS'slug'
p4
S'franco-vazquez'
p5
s.(dp0
S'crawled'
p1
I0
sS'name'
p2
S'Borja Lasso'
p3
sS'slug'
p4
S'borja-lasso'
p5
s.(dp0
S'crawled'
p1
I0
sS'name'
p2
S'Wissam Ben Yedde'
p3
sS'slug'
p4
S'wissam-ben-yedder'
p5
s.(dp0
S'crawled'
p1
I0
sS'name'
p2
S'Luis Muriel'
p3
sS'slug'
p4
S'luis-muriel'
p5
s.(dp0
S'crawled'
p1
I0
sS'name'
p2
S'Sandro Ram\xc3\xadrez'
p3
sS'slug'
p4
S'sandro-ramirez'
p5
s.(dp0
S'crawled'
p1
I0
sS'name'
p2
S'Nolito'
p3
sS'slug'
p4
S'nolito'
p5
s.(dp0
S'crawled'
p1
I0
sS'name'
p2
S'Carlos Fern\xc3\xa1nde'
p3
sS'slug'
p4
S'carlos-fernandez'
p5
s.(dp0
S'crawled'
p1
I0
sS'name'
p2
S'Kevin Trapp'
p3
sS'slug'
p4
S'kevin-trapp'
p5
s.(dp0
S'crawled'
p1
I0
sS'name'
p2
S'Alphonse Areola'
p3
sS'slug'
p4
S'alphonse-areola'
p5
s.(dp0
S'crawled'
p1
I0
sS'name'
p2
S'Remy Descamps'
p3
sS'slug'
p4
S'remy-descamps'
p5
s.(dp0
S'crawled'
p1
I0
sS'name'
p2
S'Sebastien Cibois'
p3
sS'slug'
p4
S'alec-georgen'
p5
s.(dp0
S'crawled'
p1
I0
sS'name'
p2
S'Alec Georgen'
p3
sS'slug'
p4
S'kevin-rimane'
p5
s.(dp0
S'crawled'
p1
I0
sS'name'
p2
S'Kevin Rimane'
p3
sS'slug'
p4
S'thiago-silva'
p5
s.(dp0
S'crawled'
p1
I0
sS'name'
p2
S'Thiago Silva'
p3
sS'slug'
p4
S'presnel-kimpembe'
p5
s.(dp0
S'crawled'
p1
I0
sS'name'
p2
S'Presnel Kimpembe'
p3
sS'slug'
p4
S'marquinhos'
p5
s.(dp0
S'crawled'
p1
I0
sS'name'
p2
S'Marquinhos'
p3
sS'slug'
p4
S'thomas-meunier'
p5
s.(dp0
S'crawled'
p1
I0
sS'name'
p2
S'Thomas Meunier'
p3
sS'slug'
p4
S'yuri-berchiche-izeta'
p5
s.(dp0
S'crawled'
p1
I0
sS'name'
p2
S'Yuri'
p3
sS'slug'
p4
S'layvin-kurzawa'
p5
s.(dp0
S'crawled'
p1
I0
sS'name'
p2
S'Layvin Kurzawa'
p3
sS'slug'
p4
S'dani-alves'
p5
s.(dp0
S'crawled'
p1
I0
sS'name'
p2
S'Dani Alves'
p3
sS'slug'
p4
S'lorenzo-callegari'
p5
s.(dp0
S'crawled'
p1
I0
sS'name'
p2
S'Lorenzo Callegar'
p3
sS'slug'
p4
S'marco-verratti'
p5
s.(dp0
S'crawled'
p1
I0
sS'name'
p2
S"Stanley N'Soki"
p3
sS'slug'
p4
S'goncalo-guedes'
p5
s.(dp0
S'crawled'
p1
I0
sS'name'
p2
S'Yacine Adli'
p3
sS'slug'
p4
S'thiago-motta'
p5
s.(dp0
S'crawled'
p1
I0
sS'name'
p2
S'Marco Verratti'
p3
sS'slug'
p4
S'angel-di-maria'
p5
s.(dp0
S'crawled'
p1
I0
sS'name'
p2
S'Gon\xc3\xa7alo Guedes'
p3
sS'slug'
p4
S'giovani-lo-celso'
p5
s.(dp0
S'crawled'
p1
I0
sS'name'
p2
S'Thiago Motta'
p3
sS'slug'
p4
S'lass-diarra'
p5
s.(dp0
S'crawled'
p1
I0
sS'name'
p2
S'\xc3\x81ngel Di Mar\xc3\xada'
p3
sS'slug'
p4
S'grzegorz-krychowiak'
p5
s.(dp0
S'crawled'
p1
I0
sS'name'
p2
S'Giovani Lo Celso'
p3
sS'slug'
p4
S'hatem-ben-arfa'
p5
s.(dp0
S'crawled'
p1
I0
sS'name'
p2
S'Lass Diarra'
p3
sS'slug'
p4
S'julian-draxler'
p5
s.(dp0
S'crawled'
p1
I0
sS'name'
p2
S'Grzegorz Krychow'
p3
sS'slug'
p4
S'christopher-nkunku'
p5
s.(dp0
S'crawled'
p1
I0
sS'name'
p2
S'Hatem Ben Arfa'
p3
sS'slug'
p4
S'adrien-rabiot'
p5
s.(dp0
S'crawled'
p1
I0
sS'name'
p2
S'Julian Draxler'
p3
sS'slug'
p4
S'javier-pastore'
p5
s.(dp0
S'crawled'
p1
I0
sS'name'
p2
S'Christopher Nkun'
p3
sS'slug'
p4
S'edinson-cavani'
p5
s.(dp0
S'crawled'
p1
I0
sS'name'
p2
S'Adrien Rabiot'
p3
sS'slug'
p4
S'neymar'
p5
s.(dp0
S'crawled'
p1
I0
sS'name'
p2
S'Javier Pastore'
p3
sS'slug'
p4
S'kylian-mbappe-lottin'
p5
s.(dp0
S'crawled'
p1
I0
sS'name'
p2
S'\xc3\x81lvaro Fern\xc3\xa1nd'
p3
sS'slug'
p4
S'alvaro-fernandez-fernandez'
p5
s.(dp0
S'crawled'
p1
I0
sS'name'
p2
S'Danijel Subasic'
p3
sS'slug'
p4
S'danijel-subasic'
p5
s.(dp0
S'crawled'
p1
I0
sS'name'
p2
S'Diego Benaglio'
p3
sS'slug'
p4
S'diego-benaglio'
p5
s.(dp0
S'crawled'
p1
I0
sS'name'
p2
S'Seydou Sy'
p3
sS'slug'
p4
S'seydou-sy'
p5
s.(dp0
S'crawled'
p1
I0
sS'name'
p2
S'Loic Badiashile'
p3
sS'slug'
p4
S'loic-badiashile'
p5
s.(dp0
S'crawled'
p1
I0
sS'name'
p2
S'Dinis Almeida'
p3
sS'slug'
p4
S'dinis-almeida'
p5
s.(dp0
S'crawled'
p1
I0
sS'name'
p2
S'Raphael Diarra'
p3
sS'slug'
p4
S'raphael-diarra'
p5
s.(dp0
S'crawled'
p1
I0
sS'name'
p2
S'Terence Kongolo'
p3
sS'slug'
p4
S'terence-kongolo'
p5
s.(dp0
S'crawled'
p1
I0
sS'name'
p2
S'Jemerson'
p3
sS'slug'
p4
S'jemerson'
p5
s.(dp0
S'crawled'
p1
I0
sS'name'
p2
S'Jorge'
p3
sS'slug'
p4
S'jorge'
p5
s.(dp0
S'crawled'
p1
I0
sS'name'
p2
S'Djibril Sidibe'
p3
sS'slug'
p4
S'djibril-sidibe'
p5
s.(dp0
S'crawled'
p1
I0
sS'name'
p2
S'Julien Serrano'
p3
sS'slug'
p4
S'pierre-daniel-nguinda-ndiffon'
p5
s.(dp0
S'crawled'
p1
I0
sS'name'
p2
S'Pierre-Daniel Ng'
p3
sS'slug'
p4
S'andrea-raggi'
p5
s.(dp0
S'crawled'
p1
I0
sS'name'
p2
S'Andrea Raggi'
p3
sS'slug'
p4
S'kamil-glik'
p5
s.(dp0
S'crawled'
p1
I0
sS'name'
p2
S'Kamil Glik'
p3
sS'slug'
p4
S'kevin-ndoram'
p5
s.(dp0
S'crawled'
p1
I0
sS'name'
p2
S"Kevin N'Doram"
p3
sS'slug'
p4
S'almamy-toure'
p5
s.(dp0
S'crawled'
p1
I0
sS'name'
p2
S'Almamy Tour\xc3\xa9'
p3
sS'slug'
p4
S'fabinho-tavares'
p5
s.(dp0
S'crawled'
p1
I0
sS'name'
p2
S'Romain Faivre'
p3
sS'slug'
p4
S'rachid-ghezzal'
p5
s.(dp0
S'crawled'
p1
I0
sS'name'
p2
S'Fabinho'
p3
sS'slug'
p4
S'joao-moutinho'
p5
s.(dp0
S'crawled'
p1
I0
sS'name'
p2
S'Rachid Ghezzal'
p3
sS'slug'
p4
S'youri-tielemans'
p5
s.(dp0
S'crawled'
p1
I0
sS'name'
p2
S'Jo\xc3\xa3o Moutinho'
p3
sS'slug'
p4
S'soualiho-meite'
p5
s.(dp0
S'crawled'
p1
I0
sS'name'
p2
S'Youri Tielemans'
p3
sS'slug'
p4
S'rony-lopes'
p5
s.(dp0
S'crawled'
p1
I0
sS'name'
p2
S'Soualiho Meit\xc3\xa9'
p3
sS'slug'
p4
S'boschilia'
p5
s.(dp0
S'crawled'
p1
I0
sS'name'
p2
S'Rony Lopes'
p3
sS'slug'
p4
S'thomas-lemar'
p5
s.(dp0
S'crawled'
p1
I0
sS'name'
p2
S'Gabriel Boschili'
p3
sS'slug'
p4
S'adama-traore-traore'
p5
s.(dp0
S'crawled'
p1
I0
sS'name'
p2
S'Thomas Lemar'
p3
sS'slug'
p4
S'lacina-traore'
p5
s.(dp0
S'crawled'
p1
I0
sS'name'
p2
S'Adama Traor\xc3\xa9'
p3
sS'slug'
p4
S'falcao'
p5
s.(dp0
S'crawled'
p1
I0
sS'name'
p2
S'Lacina Traor\xc3\xa9'
p3
sS'slug'
p4
S'stevan-jovetic'
p5
s.(dp0
S'crawled'
p1
I0
sS'name'
p2
S'Falcao'
p3
sS'slug'
p4
S'guido-carrillo'
p5
s.(dp0
S'crawled'
p1
I0
sS'name'
p2
S'Stevan Jovetic'
p3
sS'slug'
p4
S'keita'
p5
s.(dp0
S'crawled'
p1
I0
sS'name'
p2
S'Guido Carrillo'
p3
sS'slug'
p4
S'adama-diakhaby'
p5
s.(dp0
S'crawled'
p1
I0
sS'name'
p2
S'Keita'
p3
sS'slug'
p4
S'jordi-mboula'
p5
s.(dp0
S'crawled'
p1
I0
sS'name'
p2
S'Adama Diakhaby'
p3
sS'slug'
p4
S'moussa-sylla'
p5
s.(dp0
S'crawled'
p1
I0
sS'name'
p2
S'Gianluigi Buffon'
p3
sS'slug'
p4
S'gianluigi-buffon'
p5
s.(dp0
S'crawled'
p1
I0
sS'name'
p2
S'Carlo Pinsoglio'
p3
sS'slug'
p4
S'carlo-pinsoglio'
p5
s.(dp0
S'crawled'
p1
I0
sS'name'
p2
S'Wojciech Szczesn'
p3
sS'slug'
p4
S'wojciech-szczesny'
p5
s.(dp0
S'crawled'
p1
I0
sS'name'
p2
S'Mattia Del Faver'
p3
sS'slug'
p4
S'mattia-del-favero'
p5
s.(dp0
S'crawled'
p1
I0
sS'name'
p2
S'Leonardo Loria'
p3
sS'slug'
p4
S'leonardo-loria'
p5
s.(dp0
S'crawled'
p1
I0
sS'name'
p2
S'Mattia De Scigli'
p3
sS'slug'
p4
S'mattia-de-sciglio'
p5
s.(dp0
S'crawled'
p1
I0
sS'name'
p2
S'Giorgio Chiellin'
p3
sS'slug'
p4
S'giorgio-chiellini'
p5
s.(dp0
S'crawled'
p1
I0
sS'name'
p2
S'Medhi Benatia'
p3
sS'slug'
p4
S'medhi-benatia'
p5
s.(dp0
S'crawled'
p1
I0
sS'name'
p2
S'Alex Sandro'
p3
sS'slug'
p4
S'alex-sandro'
p5
s.(dp0
S'crawled'
p1
I0
sS'name'
p2
S'Andrea Barzagli'
p3
sS'slug'
p4
S'andrea-barzagli'
p5
s.(dp0
S'crawled'
p1
I0
sS'name'
p2
S'Benedikt H\xc3\xb6wede'
p3
sS'slug'
p4
S'benedikt-howedes'
p5
s.(dp0
S'crawled'
p1
I0
sS'name'
p2
S'Daniele Rugani'
p3
sS'slug'
p4
S'daniele-rugani'
p5
s.(dp0
S'crawled'
p1
I0
sS'name'
p2
S'Stephan Lichtste'
p3
sS'slug'
p4
S'stephan-lichtsteiner'
p5
s.(dp0
S'crawled'
p1
I0
sS'name'
p2
S'Leandro Fernande'
p3
sS'slug'
p4
S'miralem-pjanic'
p5
s.(dp0
S'crawled'
p1
I0
sS'name'
p2
S'Miralem Pjanic'
p3
sS'slug'
p4
S'sami-khedira'
p5
s.(dp0
S'crawled'
p1
I0
sS'name'
p2
S'Sami Khedira'
p3
sS'slug'
p4
S'juan-cuadrado'
p5
s.(dp0
S'crawled'
p1
I0
sS'name'
p2
S'Juan Cuadrado'
p3
sS'slug'
p4
S'claudio-marchisio'
p5
s.(dp0
S'crawled'
p1
I0
sS'name'
p2
S'Claudio Marchisi'
p3
sS'slug'
p4
S'douglas-costa'
p5
s.(dp0
S'crawled'
p1
I0
sS'name'
p2
S'Douglas Costa'
p3
sS'slug'
p4
S'blaise-matuidi'
p5
s.(dp0
S'crawled'
p1
I0
sS'name'
p2
S'Blaise Matuidi'
p3
sS'slug'
p4
S'marko-pjaca'
p5
s.(dp0
S'crawled'
p1
I0
sS'name'
p2
S'Marko Pjaca'
p3
sS'slug'
p4
S'kwadwo-asamoah'
p5
s.(dp0
S'crawled'
p1
I0
sS'name'
p2
S'Kwadwo Asamoah'
p3
sS'slug'
p4
S'stefano-sturaro'
p5
s.(dp0
S'crawled'
p1
I0
sS'name'
p2
S'Stefano Sturaro'
p3
sS'slug'
p4
S'rodrigo-bentancur'
p5
s.(dp0
S'crawled'
p1
I0
sS'name'
p2
S'Rodrigo Bentancu'
p3
sS'slug'
p4
S'ferdinando-del-sole'
p5
s.(dp0
S'crawled'
p1
I0
sS'name'
p2
S'Leonardo Merio'
p3
sS'slug'
p4
S'gonzalo-higuain'
p5
s.(dp0
S'crawled'
p1
I0
sS'name'
p2
S'Ferdinando Del S'
p3
sS'slug'
p4
S'moise-kean'
p5
s.(dp0
S'crawled'
p1
I0
sS'name'
p2
S'Simone Muratore'
p3
sS'slug'
p4
S'paulo-dybala'
p5
s.(dp0
S'crawled'
p1
I0
sS'name'
p2
S'Fabrizio Caligar'
p3
sS'slug'
p4
S'mario-mandzukic'
p5
s.(dp0
S'crawled'
p1
I0
sS'name'
p2
S'Gonzalo Higua\xc3\xadn'
p3
sS'slug'
p4
S'federico-bernardeschi'
p5
s.(dp0
S'crawled'
p1
I0
sS'name'
p2
S'Alisson'
p3
sS'slug'
p4
S'alisson'
p5
s.(dp0
S'crawled'
p1
I0
sS'name'
p2
S'Andrea Romagnoli'
p3
sS'slug'
p4
S'andrea-romagnoli'
p5
s.(dp0
S'crawled'
p1
I0
sS'name'
p2
S'Bogdan Lobont'
p3
sS'slug'
p4
S'bogdan-lobont'
p5
s.(dp0
S'crawled'
p1
I0
sS'name'
p2
S'Lukasz Skorupski'
p3
sS'slug'
p4
S'lukasz-skorupski'
p5
s.(dp0
S'crawled'
p1
I0
sS'name'
p2
S'Luca Pellegrini'
p3
sS'slug'
p4
S'luca-pellegrini'
p5
s.(dp0
S'crawled'
p1
I0
sS'name'
p2
S'Jonathan Silva'
p3
sS'slug'
p4
S'jonathan-silva'
p5
s.(dp0
S'crawled'
p1
I0
sS'name'
p2
S'Juan Jesus'
p3
sS'slug'
p4
S'juan-jesus'
p5
s.(dp0
S'crawled'
p1
I0
sS'name'
p2
S'Aleksandar Kolar'
p3
sS'slug'
p4
S'aleksandar-kolarov'
p5
s.(dp0
S'crawled'
p1
I0
sS'name'
p2
S'Elio Capradossi'
p3
sS'slug'
p4
S'elio-capradossi'
p5
s.(dp0
S'crawled'
p1
I0
sS'name'
p2
S'H\xc3\xa9ctor Moreno'
p3
sS'slug'
p4
S'hector-moreno'
p5
s.(dp0
S'crawled'
p1
I0
sS'name'
p2
S'Federico Fazio'
p3
sS'slug'
p4
S'federico-fazio'
p5
s.(dp0
S'crawled'
p1
I0
sS'name'
p2
S'Abdullahi Nura'
p3
sS'slug'
p4
S'abdullahi-nura'
p5
s.(dp0
S'crawled'
p1
I0
sS'name'
p2
S'Bruno Peres'
p3
sS'slug'
p4
S'bruno-peres'
p5
s.(dp0
S'crawled'
p1
I0
sS'name'
p2
S'Rick Karsdorp'
p3
sS'slug'
p4
S'rick-karsdorp'
p5
s.(dp0
S'crawled'
p1
I0
sS'name'
p2
S'Stefano Ciavatti'
p3
sS'slug'
p4
S'kostas-manolas'
p5
s.(dp0
S'crawled'
p1
I0
sS'name'
p2
S'Kostas Manolas'
p3
sS'slug'
p4
S'leandro-castan'
p5
s.(dp0
S'crawled'
p1
I0
sS'name'
p2
S'Leandro Cast\xc3\xa1n'
p3
sS'slug'
p4
S'radja-nainggolan'
p5
s.(dp0
S'crawled'
p1
I0
sS'name'
p2
S'Devid Eugene Bou'
p3
sS'slug'
p4
S'kevin-strootman'
p5
s.(dp0
S'crawled'
p1
I0
sS'name'
p2
S'Radja Nainggolan'
p3
sS'slug'
p4
S'lorenzo-pellegrini'
p5
s.(dp0
S'crawled'
p1
I0
sS'name'
p2
S'Kevin Strootman'
p3
sS'slug'
p4
S'daniele-de-rossi'
p5
s.(dp0
S'crawled'
p1
I0
sS'name'
p2
S'Lorenzo Pellegri'
p3
sS'slug'
p4
S'cengiz-under'
p5
s.(dp0
S'crawled'
p1
I0
sS'name'
p2
S'Daniele De Rossi'
p3
sS'slug'
p4
S'maxime-gonalons'
p5
s.(dp0
S'crawled'
p1
I0
sS'name'
p2
S'Cengiz \xc3\x9cnder'
p3
sS'slug'
p4
S'alessandro-florenzi'
p5
s.(dp0
S'crawled'
p1
I0
sS'name'
p2
S'Maxime Gonalons'
p3
sS'slug'
p4
S'gerson-santos-da-silva'
p5
s.(dp0
S'crawled'
p1
I0
sS'name'
p2
S'Alessandro Flore'
p3
sS'slug'
p4
S'diego-perotti'
p5
s.(dp0
S'crawled'
p1
I0
sS'name'
p2
S'Gerson'
p3
sS'slug'
p4
S'edin-dzeko'
p5
s.(dp0
S'crawled'
p1
I0
sS'name'
p2
S'Lorenzo Valeau'
p3
sS'slug'
p4
S'patrik-schick'
p5
s.(dp0
S'crawled'
p1
I0
sS'name'
p2
S'Mirko Antonucci'
p3
sS'slug'
p4
S'gregoire-defrel'
p5
s.(dp0
S'crawled'
p1
I0
sS'name'
p2
S'Alessio Riccardi'
p3
sS'slug'
p4
S'marco-tumminello'
p5
s.(dp0
S'crawled'
p1
I0
sS'name'
p2
S'Andrea Marcucci'
p3
sS'slug'
p4
S'stephan-el-shaarawy'
p5
s.(dp0
S'crawled'
p1
I0
sS'name'
p2
S'Thomas Strakosha'
p3
sS'slug'
p4
S'thomas-strakosha'
p5
s.(dp0
S'crawled'
p1
I0
sS'name'
p2
S'Federico Marchet'
p3
sS'slug'
p4
S'federico-marchetti'
p5
s.(dp0
S'crawled'
p1
I0
sS'name'
p2
S'Guido Guerrieri'
p3
sS'slug'
p4
S'guido-guerrieri'
p5
s.(dp0
S'crawled'
p1
I0
sS'name'
p2
S'Ivan Vargic'
p3
sS'slug'
p4
S'ivan-vargic'
p5
s.(dp0
S'crawled'
p1
I0
sS'name'
p2
S'Stefan de Vrij'
p3
sS'slug'
p4
S'stefan-de-vrij'
p5
s.(dp0
S'crawled'
p1
I0
sS'name'
p2
S'Patric'
p3
sS'slug'
p4
S'patric'
p5
s.(dp0
S'crawled'
p1
I0
sS'name'
p2
S'Jordan Lukaku'
p3
sS'slug'
p4
S'jordan-lukaku'
p5
s.(dp0
S'crawled'
p1
I0
sS'name'
p2
S'Dusan Basta'
p3
sS'slug'
p4
S'dusan-basta'
p5
s.(dp0
S'crawled'
p1
I0
sS'name'
p2
S'Wallace'
p3
sS'slug'
p4
S'wallace-fortuna-dos-santos'
p5
s.(dp0
S'crawled'
p1
I0
sS'name'
p2
S'Bastos'
p3
sS'slug'
p4
S'bastos'
p5
s.(dp0
S'crawled'
p1
I0
sS'name'
p2
S'Mart\xc3\xadn C\xc3\xa1ceres'
p3
sS'slug'
p4
S'martin-caceres'
p5
s.(dp0
S'crawled'
p1
I0
sS'name'
p2
S'Stefan Radu'
p3
sS'slug'
p4
S'stefan-radu'
p5
s.(dp0
S'crawled'
p1
I0
sS'name'
p2
S'Luiz Felipe'
p3
sS'slug'
p4
S'luiz-felipe-ramos-marchi'
p5
s.(dp0
S'crawled'
p1
I0
sS'name'
p2
S'Nicol\xc3\xb2 Armini'
p3
sS'slug'
p4
S'mauricio-dos-santos-nascimento'
p5
s.(dp0
S'crawled'
p1
I0
sS'name'
p2
S'Mauricio'
p3
sS'slug'
p4
S'adam-marusic'
p5
s.(dp0
S'crawled'
p1
I0
sS'name'
p2
S'Adam Marusic'
p3
sS'slug'
p4
S'lucas-leiva'
p5
s.(dp0
S'crawled'
p1
I0
sS'name'
p2
S'Lucas Leiva'
p3
sS'slug'
p4
S'felipe-anderson'
p5
s.(dp0
S'crawled'
p1
I0
sS'name'
p2
S'Felipe Anderson'
p3
sS'slug'
p4
S'luca-crecco'
p5
s.(dp0
S'crawled'
p1
I0
sS'name'
p2
S'Luca Crecco'
p3
sS'slug'
p4
S'marco-parolo'
p5
s.(dp0
S'crawled'
p1
I0
sS'name'
p2
S'Marco Parolo'
p3
sS'slug'
p4
S'luis-alberto'
p5
s.(dp0
S'crawled'
p1
I0
sS'name'
p2
S'Luis Alberto'
p3
sS'slug'
p4
S'senad-lulic'
p5
s.(dp0
S'crawled'
p1
I0
sS'name'
p2
S'Senad Lulic'
p3
sS'slug'
p4
S'sergej-milinkovic-savic'
p5
s.(dp0
S'crawled'
p1
I0
sS'name'
p2
S'Sergej Milinkovi'
p3
sS'slug'
p4
S'bruno-jordao'
p5
s.(dp0
S'crawled'
p1
I0
sS'name'
p2
S'Alessio Miceli'
p3
sS'slug'
p4
S'christopher-oikonomidis'
p5
s.(dp0
S'crawled'
p1
I0
sS'name'
p2
S'Bruno Jordao'
p3
sS'slug'
p4
S'davide-di-gennaro'
p5
s.(dp0
S'crawled'
p1
I0
sS'name'
p2
S'Christopher Ikon'
p3
sS'slug'
p4
S'alessandro-murgia'
p5
s.(dp0
S'crawled'
p1
I0
sS'name'
p2
S'Davide Di Gennar'
p3
sS'slug'
p4
S'abukar-mohamed'
p5
s.(dp0
S'crawled'
p1
I0
sS'name'
p2
S'Alessandro Murgi'
p3
sS'slug'
p4
S'nani'
p5
s.(dp0
S'crawled'
p1
I0
sS'name'
p2
S'Abukar Mohamed'
p3
sS'slug'
p4
S'filip-djordjevic'
p5
s.(dp0
S'crawled'
p1
I0
sS'name'
p2
S'Nani'
p3
sS'slug'
p4
S'ricardo-kishna'
p5
s.(dp0
S'crawled'
p1
I0
sS'name'
p2
S'Filip Djordjevic'
p3
sS'slug'
p4
S'keita'
p5
s.(dp0
S'crawled'
p1
I0
sS'name'
p2
S'Ricardo Kishna'
p3
sS'slug'
p4
S'ciro-immobile'
p5
s.(dp0
S'crawled'
p1
I0
sS'name'
p2
S'Keita'
p3
sS'slug'
p4
S'felipe-caicedo'
p5
s.(dp0
S'crawled'
p1
I0
sS'name'
p2
S'Ciro Immobile'
p3
sS'slug'
p4
S'simone-palombi'
p5
s.(dp0
S'crawled'
p1
I0
sS'name'
p2
S'Felipe Caicedo'
p3
sS'slug'
p4
S'pedro-neto'
p5
s.(dp0
S'crawled'
p1
I0
sS'name'
p2
S'Simone Palombi'
p3
sS'slug'
p4
S'brayan-perea'
p5
s.(dp0
S'crawled'
p1
I0
sS'name'
p2
S'Pedro Neto'
p3
sS'slug'
p4
S'cristiano-lombardi'
p5
s.(dp0
S'crawled'
p1
I0
sS'name'
p2
S'Brayan Perea'
p3
sS'slug'
p4
S'alessandro-rossi'
p5
s.(dp0
S'crawled'
p1
I0
sS'name'
p2
S'Rafael Cabral'
p3
sS'slug'
p4
S'rafael-cabral'
p5
s.(dp0
S'crawled'
p1
I0
sS'name'
p2
S'Luigi Sepe'
p3
sS'slug'
p4
S'luigi-sepe'
p5
s.(dp0
S'crawled'
p1
I0
sS'name'
p2
S'Jos\xc3\xa9 Reina'
p3
sS'slug'
p4
S'jose-reina'
p5
s.(dp0
S'crawled'
p1
I0
sS'name'
p2
S'M\xc3\xa1rio Rui'
p3
sS'slug'
p4
S'mario-rui'
p5
s.(dp0
S'crawled'
p1
I0
sS'name'
p2
S'Christian Maggio'
p3
sS'slug'
p4
S'christian-maggio'
p5
s.(dp0
S'crawled'
p1
I0
sS'name'
p2
S'Micheal Scarf'
p3
sS'slug'
p4
S'hrvoje-milic'
p5
s.(dp0
S'crawled'
p1
I0
sS'name'
p2
S'Hrvoje Milic'
p3
sS'slug'
p4
S'vlad-chiriches'
p5
s.(dp0
S'crawled'
p1
I0
sS'name'
p2
S'Vlad Chiriches'
p3
sS'slug'
p4
S'elseid-hysaj'
p5
s.(dp0
S'crawled'
p1
I0
sS'name'
p2
S'Elseid Hysaj'
p3
sS'slug'
p4
S'kalidou-koulibaly'
p5
s.(dp0
S'crawled'
p1
I0
sS'name'
p2
S'Kalidou Koulibal'
p3
sS'slug'
p4
S'faouzi-ghoulam'
p5
s.(dp0
S'crawled'
p1
I0
sS'name'
p2
S'Faouzi Ghoulam'
p3
sS'slug'
p4
S'raul-albiol'
p5
s.(dp0
S'crawled'
p1
I0
sS'name'
p2
S'Ra\xc3\xbal Albiol'
p3
sS'slug'
p4
S'lorenzo-tonelli'
p5
s.(dp0
S'crawled'
p1
I0
sS'name'
p2
S'Lorenzo Tonelli'
p3
sS'slug'
p4
S'leandrinho-do-nascimento'
p5
s.(dp0
S'crawled'
p1
I0
sS'name'
p2
S'Leandrinho'
p3
sS'slug'
p4
S'allan'
p5
s.(dp0
S'crawled'
p1
I0
sS'name'
p2
S'Allan'
p3
sS'slug'
p4
S'zinedine-machach'
p5
s.(dp0
S'crawled'
p1
I0
sS'name'
p2
S'Zinedine Machach'
p3
sS'slug'
p4
S'jorginho'
p5
s.(dp0
S'crawled'
p1
I0
sS'name'
p2
S'Jorginho'
p3
sS'slug'
p4
S'emanuele-giaccherini'
p5
s.(dp0
S'crawled'
p1
I0
sS'name'
p2
S'Emanuele Giacche'
p3
sS'slug'
p4
S'marek-hamsik'
p5
s.(dp0
S'crawled'
p1
I0
sS'name'
p2
S'Marek Hamsik'
p3
sS'slug'
p4
S'piotr-zielinski'
p5
s.(dp0
S'crawled'
p1
I0
sS'name'
p2
S'Piotr Zielinski'
p3
sS'slug'
p4
S'marko-rog'
p5
s.(dp0
S'crawled'
p1
I0
sS'name'
p2
S'Marko Rog'
p3
sS'slug'
p4
S'adam-ounas'
p5
s.(dp0
S'crawled'
p1
I0
sS'name'
p2
S'Adam Ounas'
p3
sS'slug'
p4
S'amadou-diawara'
p5
s.(dp0
S'crawled'
p1
I0
sS'name'
p2
S'Amadou Diawara'
p3
sS'slug'
p4
S'jose-callejon'
p5
s.(dp0
S'crawled'
p1
I0
sS'name'
p2
S'Jos\xc3\xa9 Callej\xc3\xb3n'
p3
sS'slug'
p4
S'dries-mertens'
p5
s.(dp0
S'crawled'
p1
I0
sS'name'
p2
S'Dries Mertens'
p3
sS'slug'
p4
S'lorenzo-insigne'
p5
s.(dp0
S'crawled'
p1
I0
sS'name'
p2
S'Lorenzo Insigne'
p3
sS'slug'
p4
S'alessio-zerbin'
p5
s.(dp0
S'crawled'
p1
I0
sS'name'
p2
S'Alessio Zerbin'
p3
sS'slug'
p4
S'arkadiusz-milik'
p5
s.(dp0
S'crawled'
p1
I0
sS'name'
p2
S'Michele Cerofoli'
p3
sS'slug'
p4
S'marco-sportiello'
p5
s.(dp0
S'crawled'
p1
I0
sS'name'
p2
S'Simone Ghidotti'
p3
sS'slug'
p4
S'bartlomiej-dragowski'
p5
s.(dp0
S'crawled'
p1
I0
sS'name'
p2
S'Marco Sportiello'
p3
sS'slug'
p4
S'vincent-laurini'
p5
s.(dp0
S'crawled'
p1
I0
sS'name'
p2
S'Bartlomiej Drago'
p3
sS'slug'
p4
S'cristiano-biraghi'
p5
s.(dp0
S'crawled'
p1
I0
sS'name'
p2
S'Vincent Laurini'
p3
sS'slug'
p4
S'vitor-hugo-franchescoli-de-souza'
p5
s.(dp0
S'crawled'
p1
I0
sS'name'
p2
S'Cristiano Biragh'
p3
sS'slug'
p4
S'nikola-milenkovic'
p5
s.(dp0
S'crawled'
p1
I0
sS'name'
p2
S'Vitor Hugo'
p3
sS'slug'
p4
S'davide-astori'
p5
s.(dp0
S'crawled'
p1
I0
sS'name'
p2
S'Nikola Milenkovi'
p3
sS'slug'
p4
S'maximiliano-olivera'
p5
s.(dp0
S'crawled'
p1
I0
sS'name'
p2
S'Davide Astori'
p3
sS'slug'
p4
S'german-pezzella'
p5
s.(dp0
S'crawled'
p1
I0
sS'name'
p2
S'Maximiliano Oliv'
p3
sS'slug'
p4
S'bruno-gaspar'
p5
s.(dp0
S'crawled'
p1
I0
sS'name'
p2
S'Germ\xc3\xa1n Pezzella'
p3
sS'slug'
p4
S'milan-badelj'
p5
s.(dp0
S'crawled'
p1
I0
sS'name'
p2
S'Luca Ranieri'
p3
sS'slug'
p4
S'carlos-sanchez'
p5
s.(dp0
S'crawled'
p1
I0
sS'name'
p2
S'Riccardo Baroni'
p3
sS'slug'
p4
S'bryan-dabo'
p5
s.(dp0
S'crawled'
p1
I0
sS'name'
p2
S'Petko Hristov'
p3
sS'slug'
p4
S'riccardo-saponara'
p5
s.(dp0
S'crawled'
p1
I0
sS'name'
p2
S'Bruno Gaspar'
p3
sS'slug'
p4
S'valentin-eysseric'
p5
s.(dp0
S'crawled'
p1
I0
sS'name'
p2
S'Joshua P\xc3\xa9rez'
p3
sS'slug'
p4
S'ianis-hagi'
p5
s.(dp0
S'crawled'
p1
I0
sS'name'
p2
S'Milan Badelj'
p3
sS'slug'
p4
S'matias-fernandez'
p5
s.(dp0
S'crawled'
p1
I0
sS'name'
p2
S'Carlos S\xc3\xa1nchez'
p3
sS'slug'
p4
S'jordan-veretout'
p5
s.(dp0
S'crawled'
p1
I0
sS'name'
p2
S'Bryan Dabo'
p3
sS'slug'
p4
S'sebastian-cristoforo'
p5
s.(dp0
S'crawled'
p1
I0
sS'name'
p2
S'Riccardo Saponar'
p3
sS'slug'
p4
S'marco-benassi'
p5
s.(dp0
S'crawled'
p1
I0
sS'name'
p2
S'Valentin Eysseri'
p3
sS'slug'
p4
S'andres-schetino'
p5
s.(dp0
S'crawled'
p1
I0
sS'name'
p2
S'Ianis Hagi'
p3
sS'slug'
p4
S'gil-dias'
p5
s.(dp0
S'crawled'
p1
I0
sS'name'
p2
S'Mat\xc3\xadas Fern\xc3\xa1nd'
p3
sS'slug'
p4
S'jaime-baez'
p5
s.(dp0
S'crawled'
p1
I0
sS'name'
p2
S'Jordan Veretout'
p3
sS'slug'
p4
S'ante-rebic'
p5
s.(dp0
S'crawled'
p1
I0
sS'name'
p2
S'Sebasti\xc3\xa1n Crist'
p3
sS'slug'
p4
S'giovanni-simeone'
p5
s.(dp0
S'crawled'
p1
I0
sS'name'
p2
S'Marco Benassi'
p3
sS'slug'
p4
S'federico-chiesa'
p5
s.(dp0
S'crawled'
p1
I0
sS'name'
p2
S'Andr\xc3\xa9s Schetino'
p3
sS'slug'
p4
S'simone-lo-faso'
p5
s.(dp0
S'crawled'
p1
I0
sS'name'
p2
S'Fabio Maistro'
p3
sS'slug'
p4
S'khouma-babacar'
p5
s.(dp0
S'crawled'
p1
I0
sS'name'
p2
S'Gil Dias'
p3
sS'slug'
p4
S'cyril-thereau'
p5
s.(dp0
S'crawled'
p1
I0
sS'name'
p2
S'Mile Svilar'
p3
sS'slug'
p4
S'mile-svilar'
p5
s.(dp0
S'crawled'
p1
I0
sS'name'
p2
S'Julio C\xc3\xa9sar'
p3
sS'slug'
p4
S'julio-cesar'
p5
s.(dp0
S'crawled'
p1
I0
sS'name'
p2
S'Paulo Lopes'
p3
sS'slug'
p4
S'paulo-lopes'
p5
s.(dp0
S'crawled'
p1
I0
sS'name'
p2
S'Bruno Varela'
p3
sS'slug'
p4
S'bruno-varela'
p5
s.(dp0
S'crawled'
p1
I0
sS'name'
p2
S'F\xc3\xa1bio Duarte'
p3
sS'slug'
p4
S'lisandro-lopez-lopez'
p5
s.(dp0
S'crawled'
p1
I0
sS'name'
p2
S'Lisandro L\xc3\xb3pez'
p3
sS'slug'
p4
S'alejandro-grimaldo'
p5
s.(dp0
S'crawled'
p1
I0
sS'name'
p2
S'Alejandro Grimal'
p3
sS'slug'
p4
S'luisao'
p5
s.(dp0
S'crawled'
p1
I0
sS'name'
p2
S'Luis\xc3\xa3o'
p3
sS'slug'
p4
S'douglas-pereira-dos-santos'
p5
s.(dp0
S'crawled'
p1
I0
sS'name'
p2
S'Douglas'
p3
sS'slug'
p4
S'branimir-kalaica'
p5
s.(dp0
S'crawled'
p1
I0
sS'name'
p2
S'Branimir Kalaica'
p3
sS'slug'
p4
S'eliseu'
p5
s.(dp0
S'crawled'
p1
I0
sS'name'
p2
S'Eliseu'
p3
sS'slug'
p4
S'jardel'
p5
s.(dp0
S'crawled'
p1
I0
sS'name'
p2
S'Jardel'
p3
sS'slug'
p4
S'ruben-dias'
p5
s.(dp0
S'crawled'
p1
I0
sS'name'
p2
S'R\xc3\xbaben Dias'
p3
sS'slug'
p4
S'aurelio-buta'
p5
s.(dp0
S'crawled'
p1
I0
sS'name'
p2
S'Aur\xc3\xa9lio Buta'
p3
sS'slug'
p4
S'lubomir-fejsa'
p5
s.(dp0
S'crawled'
p1
I0
sS'name'
p2
S'Lubomir Fejsa'
p3
sS'slug'
p4
S'filipe-augusto'
p5
s.(dp0
S'crawled'
p1
I0
sS'name'
p2
S'Filipe Augusto'
p3
sS'slug'
p4
S'andreas-samaris'
p5
s.(dp0
S'crawled'
p1
I0
sS'name'
p2
S'Andreas Samaris'
p3
sS'slug'
p4
S'andre-horta'
p5
s.(dp0
S'crawled'
p1
I0
sS'name'
p2
S'Andr\xc3\xa9 Horta'
p3
sS'slug'
p4
S'filip-krovinovic'
p5
s.(dp0
S'crawled'
p1
I0
sS'name'
p2
S'Filip Krovinovic'
p3
sS'slug'
p4
S'franco-cervi'
p5
s.(dp0
S'crawled'
p1
I0
sS'name'
p2
S'Franco Cervi'
p3
sS'slug'
p4
S'rafa-ferreira-silva'
p5
s.(dp0
S'crawled'
p1
I0
sS'name'
p2
S'Rafa'
p3
sS'slug'
p4
S'andre-carrillo'
p5
s.(dp0
S'crawled'
p1
I0
sS'name'
p2
S'Andr\xc3\xa9 Carrillo'
p3
sS'slug'
p4
S'erdal-rakip'
p5
s.(dp0
S'crawled'
p1
I0
sS'name'
p2
S'Erdal Rakip'
p3
sS'slug'
p4
S'andre-almeida'
p5
s.(dp0
S'crawled'
p1
I0
sS'name'
p2
S'Andr\xc3\xa9 Almeida'
p3
sS'slug'
p4
S'martin-chrien'
p5
s.(dp0
S'crawled'
p1
I0
sS'name'
p2
S'Martin Chrien'
p3
sS'slug'
p4
S'diogo-goncalves'
p5
s.(dp0
S'crawled'
p1
I0
sS'name'
p2
S'Keaton Parks'
p3
sS'slug'
p4
S'joao-carvalho'
p5
s.(dp0
S'crawled'
p1
I0
sS'name'
p2
S'Diogo Gon\xc3\xa7alves'
p3
sS'slug'
p4
S'raul-jimenez'
p5
s.(dp0
S'crawled'
p1
I0
sS'name'
p2
S'Jo\xc3\xa3o Carvalho'
p3
sS'slug'
p4
S'jonas'
p5
s.(dp0
S'crawled'
p1
I0
sS'name'
p2
S'Ra\xc3\xbal Jim\xc3\xa9nez'
p3
sS'slug'
p4
S'gabriel-barbosa-almeida'
p5
s.(dp0
S'crawled'
p1
I0
sS'name'
p2
S'Jonas'
p3
sS'slug'
p4
S'kostas-mitroglou'
p5
s.(dp0
S'crawled'
p1
I0
sS'name'
p2
S'Gabriel'
p3
sS'slug'
p4
S'haris-seferovic'
p5
s.(dp0
S'crawled'
p1
I0
sS'name'
p2
S'Kostas Mitroglou'
p3
sS'slug'
p4
S'andrija-zivkovic'
p5
s.(dp0
S'crawled'
p1
I0
sS'name'
p2
S'Haris Seferovic'
p3
sS'slug'
p4
S'eduardo-salvio'
p5
s.(dp0
S'crawled'
p1
I0
sS'name'
p2
S'Andrija Zivkovic'
p3
sS'slug'
p4
S'pizzi'
p5
s.(dp0
S'crawled'
p1
I0
sS'name'
p2
S'Eduardo Salvio'
p3
sS'slug'
p4
S'oscar-benitez'
p5
s.(dp0
S'crawled'
p1
I0
sS'name'
p2
S'Pizzi'
p3
sS'slug'
p4
S'chris-willock'
p5
s.(dp0
S'crawled'
p1
I0
sS'name'
p2
S'\xc3\x93scar Ben\xc3\xadtez'
p3
sS'slug'
p4
S'jose-gomes'
p5
s.(dp0
S'crawled'
p1
I0
sS'name'
p2
S'Mykyta Shevchenk'
p3
sS'slug'
p4
S'mykyta-shevchenko'
p5
s.(dp0
S'crawled'
p1
I0
sS'name'
p2
S'Andriy Pyatov'
p3
sS'slug'
p4
S'andriy-pyatov'
p5
s.(dp0
S'crawled'
p1
I0
sS'name'
p2
S'Yevgen Grytsenko'
p3
sS'slug'
p4
S'yevgen-grytsenko'
p5
s.(dp0
S'crawled'
p1
I0
sS'name'
p2
S'Oleh Kudryk'
p3
sS'slug'
p4
S'oleh-kudryk'
p5
s.(dp0
S'crawled'
p1
I0
sS'name'
p2
S'Mykola Matvyenko'
p3
sS'slug'
p4
S'mykola-matvyenko'
p5
s.(dp0
S'crawled'
p1
I0
sS'name'
p2
S'Bogdan Butko'
p3
sS'slug'
p4
S'bogdan-butko'
p5
s.(dp0
S'crawled'
p1
I0
sS'name'
p2
S'Sergey Krivtsov'
p3
sS'slug'
p4
S'sergey-krivtsov'
p5
s.(dp0
S'crawled'
p1
I0
sS'name'
p2
S'Davit Khotcholav'
p3
sS'slug'
p4
S'davit-khotcholava'
p5
s.(dp0
S'crawled'
p1
I0
sS'name'
p2
S'Maksim Malyshev'
p3
sS'slug'
p4
S'maksim-malyshev'
p5
s.(dp0
S'crawled'
p1
I0
sS'name'
p2
S'Ivan Ordets'
p3
sS'slug'
p4
S'ivan-ordets'
p5
s.(dp0
S'crawled'
p1
I0
sS'name'
p2
S'Ismaily'
p3
sS'slug'
p4
S'ismaily'
p5
s.(dp0
S'crawled'
p1
I0
sS'name'
p2
S'Darijo Srna'
p3
sS'slug'
p4
S'darijo-srna'
p5
s.(dp0
S'crawled'
p1
I0
sS'name'
p2
S'Yaroslav Rakitsk'
p3
sS'slug'
p4
S'yaroslav-rakitskiy'
p5
s.(dp0
S'crawled'
p1
I0
sS'name'
p2
S'M\xc3\xa1rcio Azevedo'
p3
sS'slug'
p4
S'marcio-azevedo'
p5
s.(dp0
S'crawled'
p1
I0
sS'name'
p2
S'Dod\xc3\xb4'
p3
sS'slug'
p4
S'dodo-cordeiro-dos-santos'
p5
s.(dp0
S'crawled'
p1
I0
sS'name'
p2
S'Sergiy Bolbat'
p3
sS'slug'
p4
S'sergiy-bolbat'
p5
s.(dp0
S'crawled'
p1
I0
sS'name'
p2
S'Dmytro Grechyshk'
p3
sS'slug'
p4
S'dmytro-grechyshkin'
p5
s.(dp0
S'crawled'
p1
I0
sS'name'
p2
S'Taras Stepanenko'
p3
sS'slug'
p4
S'taras-stepanenko'
p5
s.(dp0
S'crawled'
p1
I0
sS'name'
p2
S'Fred'
p3
sS'slug'
p4
S'fred-rodrigues-de-paula-santos'
p5
s.(dp0
S'crawled'
p1
I0
sS'name'
p2
S'Dentinho'
p3
sS'slug'
p4
S'dentinho'
p5
s.(dp0
S'crawled'
p1
I0
sS'name'
p2
S'Bernard'
p3
sS'slug'
p4
S'bernard'
p5
s.(dp0
S'crawled'
p1
I0
sS'name'
p2
S'Marlos'
p3
sS'slug'
p4
S'marlos'
p5
s.(dp0
S'crawled'
p1
I0
sS'name'
p2
S'Alan Patrick'
p3
sS'slug'
p4
S'alan-patrick'
p5
s.(dp0
S'crawled'
p1
I0
sS'name'
p2
S'Vyacheslav Tanko'
p3
sS'slug'
p4
S'vyacheslav-tankovskyi'
p5
s.(dp0
S'crawled'
p1
I0
sS'name'
p2
S'Ivan Petryak'
p3
sS'slug'
p4
S'ivan-petryak'
p5
s.(dp0
S'crawled'
p1
I0
sS'name'
p2
S'Yuri Glushchuk'
p3
sS'slug'
p4
S'yuri-glushchuk'
p5
s.(dp0
S'crawled'
p1
I0
sS'name'
p2
S'Oleksandr Pikhal'
p3
sS'slug'
p4
S'oleksandr-pikhalyonok'
p5
s.(dp0
S'crawled'
p1
I0
sS'name'
p2
S'Viktor Kovalenko'
p3
sS'slug'
p4
S'viktor-kovalenko'
p5
s.(dp0
S'crawled'
p1
I0
sS'name'
p2
S'Olarenwaju Kayod'
p3
sS'slug'
p4
S'olarenwaju-kayode'
p5
s.(dp0
S'crawled'
p1
I0
sS'name'
p2
S'Taison'
p3
sS'slug'
p4
S'taison'
p5
s.(dp0
S'crawled'
p1
I0
sS'name'
p2
S'Facundo Ferreyra'
p3
sS'slug'
p4
S'facundo-ferreyra'
p5
s.(dp0
S'crawled'
p1
I0
sS'name'
p2
S'Oleksandr Zubkov'
p3
sS'slug'
p4
S'oleksandr-zubkov'
p5
s.(dp0
S'crawled'
p1
I0
sS'name'
p2
S'Artem Dudik'
p3
sS'slug'
p4
S'artem-dudik'
p5
s.(dp0
S'crawled'
p1
I0
sS'name'
p2
S'Gustavo Blanco'
p3
sS'slug'
p4
S'gustavo-blanco'
p5
s.(dp0
S'crawled'
p1
I0
sS'name'
p2
S'Tom\xc3\xa1s Vaclik'
p3
sS'slug'
p4
S'tomas-vaclik'
p5
s.(dp0
S'crawled'
p1
I0
sS'name'
p2
S'Mirko Salvi'
p3
sS'slug'
p4
S'mirko-salvi'
p5
s.(dp0
S'crawled'
p1
I0
sS'name'
p2
S'Germano Vailati'
p3
sS'slug'
p4
S'germano-vailati'
p5
s.(dp0
S'crawled'
p1
I0
sS'name'
p2
S'Antonio Signori'
p3
sS'slug'
p4
S'omar-gaber'
p5
s.(dp0
S'crawled'
p1
I0
sS'name'
p2
S'Omar Gaber'
p3
sS'slug'
p4
S'leo-lacroix'
p5
s.(dp0
S'crawled'
p1
I0
sS'name'
p2
S'Leo Lacroix'
p3
sS'slug'
p4
S'michael-lang'
p5
s.(dp0
S'crawled'
p1
I0
sS'name'
p2
S'Michael Lang'
p3
sS'slug'
p4
S'marek-suchy'
p5
s.(dp0
S'crawled'
p1
I0
sS'name'
p2
S'Marek Suchy'
p3
sS'slug'
p4
S'eder-balanta'
p5
s.(dp0
S'crawled'
p1
I0
sS'name'
p2
S'\xc3\x89der Balanta'
p3
sS'slug'
p4
S'blas-riveros'
p5
s.(dp0
S'crawled'
p1
I0
sS'name'
p2
S'Bl\xc3\xa1s Riveros'
p3
sS'slug'
p4
S'raoul-petretta'
p5
s.(dp0
S'crawled'
p1
I0
sS'name'
p2
S'Raoul Petretta'
p3
sS'slug'
p4
S'pedro-pacheco'
p5
s.(dp0
S'crawled'
p1
I0
sS'name'
p2
S'Pedro Pacheco'
p3
sS'slug'
p4
S'luca-zuffi'
p5
s.(dp0
S'crawled'
p1
I0
sS'name'
p2
S'Yves Kaiser'
p3
sS'slug'
p4
S'renato-steffen'
p5
s.(dp0
S'crawled'
p1
I0
sS'name'
p2
S'Noah Okafor'
p3
sS'slug'
p4
S'valentin-stocker'
p5
s.(dp0
S'crawled'
p1
I0
sS'name'
p2
S'Martin Liechti'
p3
sS'slug'
p4
S'alexander-fransson'
p5
s.(dp0
S'crawled'
p1
I0
sS'name'
p2
S'Luca Zuffi'
p3
sS'slug'
p4
S'geoffroy-serey-die'
p5
s.(dp0
S'crawled'
p1
I0
sS'name'
p2
S'Samuele Campo'
p3
sS'slug'
p4
S'fabian-frei'
p5
s.(dp0
S'crawled'
p1
I0
sS'name'
p2
S'Renato Steffen'
p3
sS'slug'
p4
S'mohammed-elyounoussi'
p5
s.(dp0
S'crawled'
p1
I0
sS'name'
p2
S'Valentin Stocker'
p3
sS'slug'
p4
S'derek-kutesa'
p5
s.(dp0
S'crawled'
p1
I0
sS'name'
p2
S'Alexander Franss'
p3
sS'slug'
p4
S'dominik-schmid'
p5
s.(dp0
S'crawled'
p1
I0
sS'name'
p2
S'Geoffroy Serey D'
p3
sS'slug'
p4
S'kevin-bua'
p5
s.(dp0
S'crawled'
p1
I0
sS'name'
p2
S'Fabian Frei'
p3
sS'slug'
p4
S'taulant-xhaka'
p5
s.(dp0
S'crawled'
p1
I0
sS'name'
p2
S'Mohamed Elyounou'
p3
sS'slug'
p4
S'davide-calla'
p5
s.(dp0
S'crawled'
p1
I0
sS'name'
p2
S'Dereck Kutesa'
p3
sS'slug'
p4
S'ricky-van-wolfswinkel'
p5
s.(dp0
S'crawled'
p1
I0
sS'name'
p2
S'Dominik Schmid'
p3
sS'slug'
p4
S'andraz-sporar'
p5
s.(dp0
S'crawled'
p1
I0
sS'name'
p2
S'Kevin Bua'
p3
sS'slug'
p4
S'dimitri-oberlin'
p5
s.(dp0
S'crawled'
p1
I0
sS'name'
p2
S'Taulant Xhaka'
p3
sS'slug'
p4
S'albian-ajeti'
p5
s.(dp0
S'crawled'
p1
I0
sS'name'
p2
S'Davide Call\xc3\xa0'
p3
sS'slug'
p4
S'neftali-manzambi'
p5
s.(dp0
S'crawled'
p1
I0
sS'name'
p2
S'Ricky van Wolfsw'
p3
sS'slug'
p4
S'cedric-itten'
p5
s.(dp0
S'crawled'
p1
I0
sS'name'
p2
S'Andraz Sporar'
p3
sS'slug'
p4
S'afimico-pululu'
p5
s.(dp0
S'crawled'
p1
I0
sS'name'
p2
S'Craig Gordon'
p3
sS'slug'
p4
S'craig-gordon'
p5
s.(dp0
S'crawled'
p1
I0
sS'name'
p2
S'Dorus de Vries'
p3
sS'slug'
p4
S'dorus-de-vries'
p5
s.(dp0
S'crawled'
p1
I0
sS'name'
p2
S'Scott Bain'
p3
sS'slug'
p4
S'ross-doohan'
p5
s.(dp0
S'crawled'
p1
I0
sS'name'
p2
S'Ross Doohan'
p3
sS'slug'
p4
S'conor-hazard'
p5
s.(dp0
S'crawled'
p1
I0
sS'name'
p2
S'Conor Hazard'
p3
sS'slug'
p4
S'jack-hendry'
p5
s.(dp0
S'crawled'
p1
I0
sS'name'
p2
S'Jack Hendry'
p3
sS'slug'
p4
S'jozo-simunovic'
p5
s.(dp0
S'crawled'
p1
I0
sS'name'
p2
S'Jozo Simunovic'
p3
sS'slug'
p4
S'cristian-gamboa'
p5
s.(dp0
S'crawled'
p1
I0
sS'name'
p2
S'Cristian Gamboa'
p3
sS'slug'
p4
S'dedryck-boyata'
p5
s.(dp0
S'crawled'
p1
I0
sS'name'
p2
S'Dedryck Boyata'
p3
sS'slug'
p4
S'mikael-lustig'
p5
s.(dp0
S'crawled'
p1
I0
sS'name'
p2
S'Mikael Lustig'
p3
sS'slug'
p4
S'erik-sviatchenko'
p5
s.(dp0
S'crawled'
p1
I0
sS'name'
p2
S'Erik Sviatchenko'
p3
sS'slug'
p4
S'marvin-compper'
p5
s.(dp0
S'crawled'
p1
I0
sS'name'
p2
S'Marvin Compper'
p3
sS'slug'
p4
S'jamie-mccart'
p5
s.(dp0
S'crawled'
p1
I0
sS'name'
p2
S'Jamie McCart'
p3
sS'slug'
p4
S'anthony-ralston'
p5
s.(dp0
S'crawled'
p1
I0
sS'name'
p2
S'Ewan Henderson'
p3
sS'slug'
p4
S'kieran-tierney'
p5
s.(dp0
S'crawled'
p1
I0
sS'name'
p2
S'Anthony Ralston'
p3
sS'slug'
p4
S'charly-musonda'
p5
s.(dp0
S'crawled'
p1
I0
sS'name'
p2
S'Kieran Tierney'
p3
sS'slug'
p4
S'nir-bitton'
p5
s.(dp0
S'crawled'
p1
I0
sS'name'
p2
S'Charly Musonda'
p3
sS'slug'
p4
S'patrick-roberts'
p5
s.(dp0
S'crawled'
p1
I0
sS'name'
p2
S'Kerr McInroy'
p3
sS'slug'
p4
S'scott-brown'
p5
s.(dp0
S'crawled'
p1
I0
sS'name'
p2
S'Nir Bitton'
p3
sS'slug'
p4
S'scott-sinclair'
p5
s.(dp0
S'crawled'
p1
I0
sS'name'
p2
S'Patrick Roberts'
p3
sS'slug'
p4
S'stuart-armstrong'
p5
s.(dp0
S'crawled'
p1
I0
sS'name'
p2
S'Scott Brown'
p3
sS'slug'
p4
S'jonny-hayes'
p5
s.(dp0
S'crawled'
p1
I0
sS'name'
p2
S'Scott Sinclair'
p3
sS'slug'
p4
S'tomas-rogic'
p5
s.(dp0
S'crawled'
p1
I0
sS'name'
p2
S'Stuart Armstrong'
p3
sS'slug'
p4
S'olivier-ntcham'
p5
s.(dp0
S'crawled'
p1
I0
sS'name'
p2
S'Jonny Hayes'
p3
sS'slug'
p4
S'kundai-benyu'
p5
s.(dp0
S'crawled'
p1
I0
sS'name'
p2
S'Tomas Rogic'
p3
sS'slug'
p4
S'kristoffer-ajer'
p5
s.(dp0
S'crawled'
p1
I0
sS'name'
p2
S'Olivier Ntcham'
p3
sS'slug'
p4
S'callum-mcgregor'
p5
s.(dp0
S'crawled'
p1
I0
sS'name'
p2
S'Kundai Benyu'
p3
sS'slug'
p4
S'liam-henderson'
p5
s.(dp0
S'crawled'
p1
I0
sS'name'
p2
S'Kristoffer Ajer'
p3
sS'slug'
p4
S'kouassi-eboue'
p5
s.(dp0
S'crawled'
p1
I0
sS'name'
p2
S'Callum McGregor'
p3
sS'slug'
p4
S'leigh-griffiths'
p5
s.(dp0
S'crawled'
p1
I0
sS'name'
p2
S'Liam Henderson'
p3
sS'slug'
p4
S'moussa-dembele'
p5
s.(dp0
S'crawled'
p1
I0
sS'name'
p2
S'Eboue Kouassi'
p3
sS'slug'
p4
S'odsonne-edouard'
p5
s.(dp0
S'crawled'
p1
I0
sS'name'
p2
S'Leigh Griffiths'
p3
sS'slug'
p4
S'james-forrest'
p5
s.(dp0
S'crawled'
p1
I0
sS'name'
p2
S'Moussa Dembele'
p3
sS'slug'
p4
S'calvin-miller'
p5
s.(dp0
S'crawled'
p1
I0
sS'name'
p2
S'Odsonne Edouard'
p3
sS'slug'
p4
S'michael-johnston'
p5
s.(dp0
S'crawled'
p1
I0
sS'name'
p2
S'James Forrest'
p3
sS'slug'
p4
S'jack-aitchison'
p5
s.(dp0
S'crawled'
p1
I0
sS'name'
p2
S'Fabio Coltorti'
p3
sS'slug'
p4
S'fabio-coltorti'
p5
s.(dp0
S'crawled'
p1
I0
sS'name'
p2
S'Philipp K\xc3\xb6hn'
p3
sS'slug'
p4
S'philipp-kohn'
p5
s.(dp0
S'crawled'
p1
I0
sS'name'
p2
S'Yvon Mvogo'
p3
sS'slug'
p4
S'yvon-mvogo'
p5
s.(dp0
S'crawled'
p1
I0
sS'name'
p2
S'P\xc3\xa9ter Gul\xc3\xa1csi'
p3
sS'slug'
p4
S'peter-gulacsi'
p5
s.(dp0
S'crawled'
p1
I0
sS'name'
p2
S'Bernardo'
p3
sS'slug'
p4
S'bernardo-fernandes-da-silva-junior'
p5
s.(dp0
S'crawled'
p1
I0
sS'name'
p2
S'Willi Orban'
p3
sS'slug'
p4
S'willi-orban'
p5
s.(dp0
S'crawled'
p1
I0
sS'name'
p2
S'Dayotchanculle U'
p3
sS'slug'
p4
S'dayotchanculle-upamecano'
p5
s.(dp0
S'crawled'
p1
I0
sS'name'
p2
S'Ibrahima Konat\xc3\xa9'
p3
sS'slug'
p4
S'ibrahima-konate'
p5
s.(dp0
S'crawled'
p1
I0
sS'name'
p2
S'Lukas Klosterman'
p3
sS'slug'
p4
S'lukas-klostermann'
p5
s.(dp0
S'crawled'
p1
I0
sS'name'
p2
S'Benno Schmitz'
p3
sS'slug'
p4
S'benno-schmitz'
p5
s.(dp0
S'crawled'
p1
I0
sS'name'
p2
S'Marcel Halstenbe'
p3
sS'slug'
p4
S'marcel-halstenberg'
p5
s.(dp0
S'crawled'
p1
I0
sS'name'
p2
S'Marcel Sabitzer'
p3
sS'slug'
p4
S'marcel-sabitzer'
p5
s.(dp0
S'crawled'
p1
I0
sS'name'
p2
S'Naby Keita'
p3
sS'slug'
p4
S'naby-keita'
p5
s.(dp0
S'crawled'
p1
I0
sS'name'
p2
S'Stefan Ilsanker'
p3
sS'slug'
p4
S'stefan-ilsanker'
p5
s.(dp0
S'crawled'
p1
I0
sS'name'
p2
S'Dominik Kaiser'
p3
sS'slug'
p4
S'dominik-kaiser'
p5
s.(dp0
S'crawled'
p1
I0
sS'name'
p2
S'Konrad Laimer'
p3
sS'slug'
p4
S'konrad-laimer'
p5
s.(dp0
S'crawled'
p1
I0
sS'name'
p2
S'Diego Demme'
p3
sS'slug'
p4
S'diego-demme'
p5
s.(dp0
S'crawled'
p1
I0
sS'name'
p2
S'Kevin Kampl'
p3
sS'slug'
p4
S'kevin-kampl'
p5
s.(dp0
S'crawled'
p1
I0
sS'name'
p2
S'Yussuf Poulsen'
p3
sS'slug'
p4
S'yussuf-poulsen'
p5
s.(dp0
S'crawled'
p1
I0
sS'name'
p2
S'Emil Forsberg'
p3
sS'slug'
p4
S'emil-forsberg'
p5
s.(dp0
S'crawled'
p1
I0
sS'name'
p2
S'Timo Werner'
p3
sS'slug'
p4
S'timo-werner'
p5
s.(dp0
S'crawled'
p1
I0
sS'name'
p2
S'Bruma'
p3
sS'slug'
p4
S'bruma'
p5
s.(dp0
S'crawled'
p1
I0
sS'name'
p2
S'Ademola Lookman'
p3
sS'slug'
p4
S'ademola-lookman'
p5
s.(dp0
S'crawled'
p1
I0
sS'name'
p2
S'Nicolas-Gerrit K'
p3
sS'slug'
p4
S'nicolas-gerrit-kuhn'
p5
s.(dp0
S'crawled'
p1
I0
sS'name'
p2
S'Jean-K\xc3\xa9vin Augu'
p3
sS'slug'
p4
S'jean-kevin-augustin'
p5
s.(dp0
S'crawled'
p1
I0
sS'name'
p2
S'Federico Palacio'
p3
sS'slug'
p4
S'federico-palacios'
p5
s.(dp0
S'crawled'
p1
I0
sS'name'
p2
S'Andr\xc3\xa9 Onana'
p3
sS'slug'
p4
S'andre-onana'
p5
s.(dp0
S'crawled'
p1
I0
sS'name'
p2
S'Benjamin van Lee'
p3
sS'slug'
p4
S'benjamin-van-leer'
p5
s.(dp0
S'crawled'
p1
I0
sS'name'
p2
S'Norbert Alblas'
p3
sS'slug'
p4
S'norbert-alblas'
p5
s.(dp0
S'crawled'
p1
I0
sS'name'
p2
S'Kostas Lamprou'
p3
sS'slug'
p4
S'kostas-lamprou'
p5
s.(dp0
S'crawled'
p1
I0
sS'name'
p2
S'Jo\xc3\xabl Veltman'
p3
sS'slug'
p4
S'joel-veltman'
p5
s.(dp0
S'crawled'
p1
I0
sS'name'
p2
S'Matthijs de Ligt'
p3
sS'slug'
p4
S'matthijs-de-ligt'
p5
s.(dp0
S'crawled'
p1
I0
sS'name'
p2
S'Maximilian W\xc3\xb6be'
p3
sS'slug'
p4
S'maximilian-wober'
p5
s.(dp0
S'crawled'
p1
I0
sS'name'
p2
S'Davinson S\xc3\xa1nche'
p3
sS'slug'
p4
S'davinson-sanchez'
p5
s.(dp0
S'crawled'
p1
I0
sS'name'
p2
S'Daley Sinkgraven'
p3
sS'slug'
p4
S'daley-sinkgraven'
p5
s.(dp0
S'crawled'
p1
I0
sS'name'
p2
S'Nick Viergever'
p3
sS'slug'
p4
S'nick-viergever'
p5
s.(dp0
S'crawled'
p1
I0
sS'name'
p2
S'Luis Orejuela'
p3
sS'slug'
p4
S'mitchell-dijks'
p5
s.(dp0
S'crawled'
p1
I0
sS'name'
p2
S'Nicol\xc3\xa1s Tagliaf'
p3
sS'slug'
p4
S'rasmus-nissen-kristensen'
p5
s.(dp0
S'crawled'
p1
I0
sS'name'
p2
S'Mitchell Dijks'
p3
sS'slug'
p4
S'donny-van-de-beek'
p5
s.(dp0
S'crawled'
p1
I0
sS'name'
p2
S'Leon Bergsma'
p3
sS'slug'
p4
S'hakim-ziyech'
p5
s.(dp0
S'crawled'
p1
I0
sS'name'
p2
S'Rasmus Kristense'
p3
sS'slug'
p4
S'robert-muric'
p5
s.(dp0
S'crawled'
p1
I0
sS'name'
p2
S'Mitchel Bakker'
p3
sS'slug'
p4
S'lasse-schone'
p5
s.(dp0
S'crawled'
p1
I0
sS'name'
p2
S'Noa Lang'
p3
sS'slug'
p4
S'frenkie-de-jong'
p5
s.(dp0
S'crawled'
p1
I0
sS'name'
p2
S'Donny van de Bee'
p3
sS'slug'
p4
S'siem-de-jong'
p5
s.(dp0
S'crawled'
p1
I0
sS'name'
p2
S'Hakim Ziyech'
p3
sS'slug'
p4
S'klaas-jan-huntelaar'
p5
s.(dp0
S'crawled'
p1
I0
sS'name'
p2
S'Carel Eiting'
p3
sS'slug'
p4
S'amin-younes'
p5
s.(dp0
S'crawled'
p1
I0
sS'name'
p2
S'Robert Muric'
p3
sS'slug'
p4
S'vaclav-cerny'
p5
s.(dp0
S'crawled'
p1
I0
sS'name'
p2
S'Lasse Sch\xc3\xb6ne'
p3
sS'slug'
p4
S'mateo-cassierra'
p5
s.(dp0
S'crawled'
p1
I0
sS'name'
p2
S'Frenkie de Jong'
p3
sS'slug'
p4
S'kasper-dolberg'
p5
s.(dp0
S'crawled'
p1
I0
sS'name'
p2
S'Kenneth Vermeer'
p3
sS'slug'
p4
S'kenneth-vermeer'
p5
s.(dp0
S'crawled'
p1
I0
sS'name'
p2
S'Justin Bijlow'
p3
sS'slug'
p4
S'justin-bijlow'
p5
s.(dp0
S'crawled'
p1
I0
sS'name'
p2
S'Brad Jones'
p3
sS'slug'
p4
S'brad-jones'
p5
s.(dp0
S'crawled'
p1
I0
sS'name'
p2
S'Ram\xc3\xb3n ten Hove'
p3
sS'slug'
p4
S'ramon-ten-hove'
p5
s.(dp0
S'crawled'
p1
I0
sS'name'
p2
S'Elber Evora'
p3
sS'slug'
p4
S'miquel-nelom'
p5
s.(dp0
S'crawled'
p1
I0
sS'name'
p2
S'Jordie Van Leeuw'
p3
sS'slug'
p4
S'bart-nieuwkoop'
p5
s.(dp0
S'crawled'
p1
I0
sS'name'
p2
S'Miquel Nelom'
p3
sS'slug'
p4
S'sven-van-beek'
p5
s.(dp0
S'crawled'
p1
I0
sS'name'
p2
S'Lutsharel Geertr'
p3
sS'slug'
p4
S'jerry-st.-juste'
p5
s.(dp0
S'crawled'
p1
I0
sS'name'
p2
S'Bart Nieuwkoop'
p3
sS'slug'
p4
S'ridgeciano-haps'
p5
s.(dp0
S'crawled'
p1
I0
sS'name'
p2
S'Sven van Beek'
p3
sS'slug'
p4
S'jan-arie-van-der-heijden'
p5
s.(dp0
S'crawled'
p1
I0
sS'name'
p2
S'Jeremiah St. Jus'
p3
sS'slug'
p4
S'kevin-diks'
p5
s.(dp0
S'crawled'
p1
I0
sS'name'
p2
S'Ridgeciano Haps'
p3
sS'slug'
p4
S'renato-tapia'
p5
s.(dp0
S'crawled'
p1
I0
sS'name'
p2
S'Jan-Arie van der'
p3
sS'slug'
p4
S'eric-botteghin'
p5
s.(dp0
S'crawled'
p1
I0
sS'name'
p2
S'Boyd Reith'
p3
sS'slug'
p4
S'tyrell-malacia'
p5
s.(dp0
S'crawled'
p1
I0
sS'name'
p2
S'Noah Lewis'
p3
sS'slug'
p4
S'karim-el-ahmadi'
p5
s.(dp0
S'crawled'
p1
I0
sS'name'
p2
S'Kevin Diks'
p3
sS'slug'
p4
S'tonny-vilhena'
p5
s.(dp0
S'crawled'
p1
I0
sS'name'
p2
S'Renato Tapia'
p3
sS'slug'
p4
S'sofyan-amrabat'
p5
s.(dp0
S'crawled'
p1
I0
sS'name'
p2
S'Eric Botteghin'
p3
sS'slug'
p4
S'jens-toornstra'
p5
s.(dp0
S'crawled'
p1
I0
sS'name'
p2
S'Tyrell Malacia'
p3
sS'slug'
p4
S'emil-hansson'
p5
s.(dp0
S'crawled'
p1
I0
sS'name'
p2
S'Karim El Ahmadi'
p3
sS'slug'
p4
S'jordy-wehrmann'
p5
s.(dp0
S'crawled'
p1
I0
sS'name'
p2
S'Tonny Vilhena'
p3
sS'slug'
p4
S'michiel-kramer'
p5
s.(dp0
S'crawled'
p1
I0
sS'name'
p2
S'Sofyan Amrabat'
p3
sS'slug'
p4
S'jean-paul-boetius'
p5
s.(dp0
S'crawled'
p1
I0
sS'name'
p2
S'Jens Toornstra'
p3
sS'slug'
p4
S'nicolai-jorgensen'
p5
s.(dp0
S'crawled'
p1
I0
sS'name'
p2
S'Emil Hansson'
p3
sS'slug'
p4
S'sam-larsson'
p5
s.(dp0
S'crawled'
p1
I0
sS'name'
p2
S'Jordy Wehrmann'
p3
sS'slug'
p4
S'bilal-basacikoglu'
p5
s.(dp0
S'crawled'
p1
I0
sS'name'
p2
S'Michiel Kramer'
p3
sS'slug'
p4
S'steven-berghuis'
p5
s.(dp0
S'crawled'
p1
I0
sS'name'
p2
S'Jean-Paul Bo\xc3\xabti'
p3
sS'slug'
p4
S'robin-van-persie'
p5
s.(dp0
S'crawled'
p1
I0
sS'name'
p2
S'Nicolai J\xc3\xb8rgens'
p3
sS'slug'
p4
S'dylan-vente'
p5
s.(dp0
S'crawled'
p1
I0
sS'name'
p2
S'Sam Larsson'
p3
sS'slug'
p4
S'cheick-toure-toure'
p5
s.(dp0
S'crawled'
p1
I0
sS'name'
p2
S'Roman Weidenfell'
p3
sS'slug'
p4
S'roman-weidenfeller'
p5
s.(dp0
S'crawled'
p1
I0
sS'name'
p2
S'Dominik Reimann'
p3
sS'slug'
p4
S'dominik-reimann'
p5
s.(dp0
S'crawled'
p1
I0
sS'name'
p2
S'Roman B\xc3\xbcrki'
p3
sS'slug'
p4
S'roman-burki'
p5
s.(dp0
S'crawled'
p1
I0
sS'name'
p2
S'Dan-Axel Zagadou'
p3
sS'slug'
p4
S'dan-axel-zagadou'
p5
s.(dp0
S'crawled'
p1
I0
sS'name'
p2
S'Neven Subotic'
p3
sS'slug'
p4
S'neven-subotic'
p5
s.(dp0
S'crawled'
p1
I0
sS'name'
p2
S'Marc Bartra'
p3
sS'slug'
p4
S'marc-bartra'
p5
s.(dp0
S'crawled'
p1
I0
sS'name'
p2
S'Raphael Guerreir'
p3
sS'slug'
p4
S'raphael-guerreiro'
p5
s.(dp0
S'crawled'
p1
I0
sS'name'
p2
S'Jeremy Toljan'
p3
sS'slug'
p4
S'jeremy-toljan'
p5
s.(dp0
S'crawled'
p1
I0
sS'name'
p2
S'Manuel Akanji'
p3
sS'slug'
p4
S'manuel-akanji'
p5
s.(dp0
S'crawled'
p1
I0
sS'name'
p2
S'Jan-Niklas Beste'
p3
sS'slug'
p4
S'jan-niklas-beste'
p5
s.(dp0
S'crawled'
p1
I0
sS'name'
p2
S'Sokratis'
p3
sS'slug'
p4
S'sokratis'
p5
s.(dp0
S'crawled'
p1
I0
sS'name'
p2
S'Lukasz Piszczek'
p3
sS'slug'
p4
S'lukasz-piszczek'
p5
s.(dp0
S'crawled'
p1
I0
sS'name'
p2
S'Marcel Schmelzer'
p3
sS'slug'
p4
S'marcel-schmelzer'
p5
s.(dp0
S'crawled'
p1
I0
sS'name'
p2
S'\xc3\x96mer Toprak'
p3
sS'slug'
p4
S'omer-toprak'
p5
s.(dp0
S'crawled'
p1
I0
sS'name'
p2
S'Erik Durm'
p3
sS'slug'
p4
S'erik-durm'
p5
s.(dp0
S'crawled'
p1
I0
sS'name'
p2
S'Jadon Sancho'
p3
sS'slug'
p4
S'nuri-sahin'
p5
s.(dp0
S'crawled'
p1
I0
sS'name'
p2
S'Nuri Sahin'
p3
sS'slug'
p4
S'mario-gotze'
p5
s.(dp0
S'crawled'
p1
I0
sS'name'
p2
S'Mario G\xc3\xb6tze'
p3
sS'slug'
p4
S'sebastian-rode'
p5
s.(dp0
S'crawled'
p1
I0
sS'name'
p2
S'Sebastian Rode'
p3
sS'slug'
p4
S'mahmoud-dahoud'
p5
s.(dp0
S'crawled'
p1
I0
sS'name'
p2
S'Mahmoud Dahoud'
p3
sS'slug'
p4
S'andre-schurrle'
p5
s.(dp0
S'crawled'
p1
I0
sS'name'
p2
S'Andr\xc3\xa9 Sch\xc3\xbcrrle'
p3
sS'slug'
p4
S'christian-pulisic'
p5
s.(dp0
S'crawled'
p1
I0
sS'name'
p2
S'Christian Pulisi'
p3
sS'slug'
p4
S'shinji-kagawa'
p5
s.(dp0
S'crawled'
p1
I0
sS'name'
p2
S'Shinji Kagawa'
p3
sS'slug'
p4
S'gonzalo-castro-castro'
p5
s.(dp0
S'crawled'
p1
I0
sS'name'
p2
S'Gonzalo Castro'
p3
sS'slug'
p4
S'julian-weigl'
p5
s.(dp0
S'crawled'
p1
I0
sS'name'
p2
S'Julian Weigl'
p3
sS'slug'
p4
S'andriy-yarmolenko'
p5
s.(dp0
S'crawled'
p1
I0
sS'name'
p2
S'Andriy Yarmolenk'
p3
sS'slug'
p4
S'marco-reus'
p5
s.(dp0
S'crawled'
p1
I0
sS'name'
p2
S'Marco Reus'
p3
sS'slug'
p4
S'alexander-isak'
p5
s.(dp0
S'crawled'
p1
I0
sS'name'
p2
S'Alexander Isak'
p3
sS'slug'
p4
S'maximilian-philipp'
p5
s.(dp0
S'crawled'
p1
I0
sS'name'
p2
S'Maximilian Phili'
p3
sS'slug'
p4
S'jacob-bruun-larsen'
p5
s.(dp0
S'crawled'
p1
I0
sS'name'
p2
S'Jacob Bruun Lars'
p3
sS'slug'
p4
S'michy-batshuayi'
p5
s.(dp0
S'crawled'
p1
I0
sS'name'
p2
S'Manuel Neuer'
p3
sS'slug'
p4
S'manuel-neuer'
p5
s.(dp0
S'crawled'
p1
I0
sS'name'
p2
S'Tom Starke'
p3
sS'slug'
p4
S'tom-starke'
p5
s.(dp0
S'crawled'
p1
I0
sS'name'
p2
S'Sven Ulreich'
p3
sS'slug'
p4
S'sven-ulreich'
p5
s.(dp0
S'crawled'
p1
I0
sS'name'
p2
S'Christian Fr\xc3\xbcch'
p3
sS'slug'
p4
S'christian-fruchtl'
p5
s.(dp0
S'crawled'
p1
I0
sS'name'
p2
S'Leo Weinkauf'
p3
sS'slug'
p4
S'niklas-sule'
p5
s.(dp0
S'crawled'
p1
I0
sS'name'
p2
S'Ron-Thorben Hoff'
p3
sS'slug'
p4
S'mats-hummels'
p5
s.(dp0
S'crawled'
p1
I0
sS'name'
p2
S'Niklas Tarnat'
p3
sS'slug'
p4
S'javi-martinez'
p5
s.(dp0
S'crawled'
p1
I0
sS'name'
p2
S'Resul T\xc3\xbcrkkales'
p3
sS'slug'
p4
S'rafinha'
p5
s.(dp0
S'crawled'
p1
I0
sS'name'
p2
S'Theo Rieg'
p3
sS'slug'
p4
S'juan-bernat'
p5
s.(dp0
S'crawled'
p1
I0
sS'name'
p2
S'Alexander Nitzl'
p3
sS'slug'
p4
S'jerome-boateng'
p5
s.(dp0
S'crawled'
p1
I0
sS'name'
p2
S'Derrick Kohn'
p3
sS'slug'
p4
S'felix-gotze'
p5
s.(dp0
S'crawled'
p1
I0
sS'name'
p2
S'Niklas S\xc3\xbcle'
p3
sS'slug'
p4
S'david-alaba'
p5
s.(dp0
S'crawled'
p1
I0
sS'name'
p2
S'Mats Hummels'
p3
sS'slug'
p4
S'marco-friedl'
p5
s.(dp0
S'crawled'
p1
I0
sS'name'
p2
S'Javi Mart\xc3\xadnez'
p3
sS'slug'
p4
S'thiago-alcantara'
p5
s.(dp0
S'crawled'
p1
I0
sS'name'
p2
S'Rafinha'
p3
sS'slug'
p4
S'franck-ribery'
p5
s.(dp0
S'crawled'
p1
I0
sS'name'
p2
S'Juan Bernat'
p3
sS'slug'
p4
S'arjen-robben'
p5
s.(dp0
S'crawled'
p1
I0
sS'name'
p2
S'Lukas Mai'
p3
sS'slug'
p4
S'james-rodriguez'
p5
s.(dp0
S'crawled'
p1
I0
sS'name'
p2
S'J\xc3\xa9r\xc3\xb4me Boateng'
p3
sS'slug'
p4
S'sebastian-rudy'
p5
s.(dp0
S'crawled'
p1
I0
sS'name'
p2
S'Felix G\xc3\xb6tze'
p3
sS'slug'
p4
S'arturo-vidal'
p5
s.(dp0
S'crawled'
p1
I0
sS'name'
p2
S'David Alaba'
p3
sS'slug'
p4
S'corentin-tolisso'
p5
s.(dp0
S'crawled'
p1
I0
sS'name'
p2
S'Marco Friedl'
p3
sS'slug'
p4
S'niklas-dorsch'
p5
s.(dp0
S'crawled'
p1
I0
sS'name'
p2
S'Maximilian Franz'
p3
sS'slug'
p4
S'joshua-kimmich'
p5
s.(dp0
S'crawled'
p1
I0
sS'name'
p2
S'Raphael Obermair'
p3
sS'slug'
p4
S'timothy-tillman'
p5
s.(dp0
S'crawled'
p1
I0
sS'name'
p2
S'Marin Pudic'
p3
sS'slug'
p4
S'renato-sanches'
p5
s.(dp0
S'crawled'
p1
I0
sS'name'
p2
S'Thiago Alc\xc3\xa1ntar'
p3
sS'slug'
p4
S'fabian-benko'
p5
s.(dp0
S'crawled'
p1
I0
sS'name'
p2
S'Franck Rib\xc3\xa9ry'
p3
sS'slug'
p4
S'mario-crnicki'
p5
s.(dp0
S'crawled'
p1
I0
sS'name'
p2
S'Arjen Robben'
p3
sS'slug'
p4
S'robert-lewandowski'
p5
s.(dp0
S'crawled'
p1
I0
sS'name'
p2
S'James Rodr\xc3\xadguez'
p3
sS'slug'
p4
S'sandro-wagner'
p5
s.(dp0
S'crawled'
p1
I0
sS'name'
p2
S'Meritan Shabani'
p3
sS'slug'
p4
S'thomas-muller'
p5
s.(dp0
S'crawled'
p1
I0
sS'name'
p2
S'Sebastian Rudy'
p3
sS'slug'
p4
S'kingsley-coman'
p5
s.(dp0
S'crawled'
p1
I0
sS'name'
p2
S'Arturo Vidal'
p3
sS'slug'
p4
S'milos-pantovic'
p5
s.(dp0
S'crawled'
p1
I0
sS'name'
p2
S'Jan Oblak'
p3
sS'slug'
p4
S'jan-oblak'
p5
s.(dp0
S'crawled'
p1
I0
sS'name'
p2
S'Axel Werner'
p3
sS'slug'
p4
S'axel-werner'
p5
s.(dp0
S'crawled'
p1
I0
sS'name'
p2
S'Miguel San Rom\xc3\xa1'
p3
sS'slug'
p4
S'diego-godin'
p5
s.(dp0
S'crawled'
p1
I0
sS'name'
p2
S'Alex Dos Santos'
p3
sS'slug'
p4
S'filipe-luis'
p5
s.(dp0
S'crawled'
p1
I0
sS'name'
p2
S'Diego God\xc3\xadn'
p3
sS'slug'
p4
S'stefan-savic'
p5
s.(dp0
S'crawled'
p1
I0
sS'name'
p2
S'Filipe Lu\xc3\xads'
p3
sS'slug'
p4
S'sime-vrsaljko'
p5
s.(dp0
S'crawled'
p1
I0
sS'name'
p2
S'Stefan Savic'
p3
sS'slug'
p4
S'lucas-hernandez'
p5
s.(dp0
S'crawled'
p1
I0
sS'name'
p2
S'Sime Vrsaljko'
p3
sS'slug'
p4
S'juanfran-torres-belen'
p5
s.(dp0
S'crawled'
p1
I0
sS'name'
p2
S'Lucas Hern\xc3\xa1ndez'
p3
sS'slug'
p4
S'gimenez'
p5
s.(dp0
S'crawled'
p1
I0
sS'name'
p2
S'Juanfran'
p3
sS'slug'
p4
S'sergi'
p5
s.(dp0
S'crawled'
p1
I0
sS'name'
p2
S'Jos\xc3\xa9 Gim\xc3\xa9nez'
p3
sS'slug'
p4
S'thomas-partey'
p5
s.(dp0
S'crawled'
p1
I0
sS'name'
p2
S'Sergi Gonz\xc3\xa1lez'
p3
sS'slug'
p4
S'koke'
p5
s.(dp0
S'crawled'
p1
I0
sS'name'
p2
S'Carlos Isaac'
p3
sS'slug'
p4
S'saul-niguez'
p5
s.(dp0
S'crawled'
p1
I0
sS'name'
p2
S'Antonio Montoro'
p3
sS'slug'
p4
S'yannick-carrasco'
p5
s.(dp0
S'crawled'
p1
I0
sS'name'
p2
S'Thomas Partey'
p3
sS'slug'
p4
S'augusto-fernandez'
p5
s.(dp0
S'crawled'
p1
I0
sS'name'
p2
S'Koke'
p3
sS'slug'
p4
S'gabi'
p5
s.(dp0
S'crawled'
p1
I0
sS'name'
p2
S'Sa\xc3\xbal \xc3\x91\xc3\xadguez'
p3
sS'slug'
p4
S'nicolas-gaitan'
p5
s.(dp0
S'crawled'
p1
I0
sS'name'
p2
S'Yannick Carrasco'
p3
sS'slug'
p4
S'vitolo'
p5
s.(dp0
S'crawled'
p1
I0
sS'name'
p2
S'Augusto Fern\xc3\xa1nd'
p3
sS'slug'
p4
S'juan-moreno'
p5
s.(dp0
S'crawled'
p1
I0
sS'name'
p2
S'Gabi'
p3
sS'slug'
p4
S'antoine-griezmann'
p5
s.(dp0
S'crawled'
p1
I0
sS'name'
p2
S'Nicol\xc3\xa1s Gait\xc3\xa1n'
p3
sS'slug'
p4
S'luciano-vietto'
p5
s.(dp0
S'crawled'
p1
I0
sS'name'
p2
S'Vitolo'
p3
sS'slug'
p4
S'fernando-torres'
p5
s.(dp0
S'crawled'
p1
I0
sS'name'
p2
S'Juan Moreno'
p3
sS'slug'
p4
S'angel-correa'
p5
s.(dp0
S'crawled'
p1
I0
sS'name'
p2
S'Keidi Bare'
p3
sS'slug'
p4
S'diego-costa'
p5
s.(dp0
S'crawled'
p1
I0
sS'name'
p2
S'Roberto Olabe'
p3
sS'slug'
p4
S'kevin-gameiro'
p5
s.(dp0
S'crawled'
p1
I0
sS'name'
p2
S'Sergio Rico'
p3
sS'slug'
p4
S'sergio-rico'
p5
s.(dp0
S'crawled'
p1
I0
sS'name'
p2
S'David Soria'
p3
sS'slug'
p4
S'david-soria'
p5
s.(dp0
S'crawled'
p1
I0
sS'name'
p2
S'Juan Soriano'
p3
sS'slug'
p4
S'juan-soriano'
p5
s.(dp0
S'crawled'
p1
I0
sS'name'
p2
S'Lionel Carole'
p3
sS'slug'
p4
S'lionel-carole'
p5
s.(dp0
S'crawled'
p1
I0
sS'name'
p2
S'S\xc3\xa9bastien Corch'
p3
sS'slug'
p4
S'sebastien-corchia'
p5
s.(dp0
S'crawled'
p1
I0
sS'name'
p2
S'Simon Kjaer'
p3
sS'slug'
p4
S'simon-kjaer'
p5
s.(dp0
S'crawled'
p1
I0
sS'name'
p2
S'Cl\xc3\xa9ment Lenglet'
p3
sS'slug'
p4
S'clement-lenglet'
p5
s.(dp0
S'crawled'
p1
I0
sS'name'
p2
S'Daniel Carri\xc3\xa7o'
p3
sS'slug'
p4
S'daniel-carrico'
p5
s.(dp0
S'crawled'
p1
I0
sS'name'
p2
S'Guilherme Arana'
p3
sS'slug'
p4
S'guilherme-arana'
p5
s.(dp0
S'crawled'
p1
I0
sS'name'
p2
S'Sergio Escudero'
p3
sS'slug'
p4
S'sergio-escudero'
p5
s.(dp0
S'crawled'
p1
I0
sS'name'
p2
S'Miguel Lay\xc3\xban'
p3
sS'slug'
p4
S'miguel-layun'
p5
s.(dp0
S'crawled'
p1
I0
sS'name'
p2
S'Nico Pareja'
p3
sS'slug'
p4
S'nico-pareja'
p5
s.(dp0
S'crawled'
p1
I0
sS'name'
p2
S'Gabriel Mercado'
p3
sS'slug'
p4
S'gabriel-mercado'
p5
s.(dp0
S'crawled'
p1
I0
sS'name'
p2
S'Roque Mesa'
p3
sS'slug'
p4
S'roque'
p5
s.(dp0
S'crawled'
p1
I0
sS'name'
p2
S'Walter Montoya'
p3
sS'slug'
p4
S'walter-montoya'
p5
s.(dp0
S'crawled'
p1
I0
sS'name'
p2
S'\xc3\x89ver Banega'
p3
sS'slug'
p4
S'ever-banega'
p5
s.(dp0
S'crawled'
p1
I0
sS'name'
p2
S'Ganso'
p3
sS'slug'
p4
S'ganso'
p5
s.(dp0
S'crawled'
p1
I0
sS'name'
p2
S'Joaqu\xc3\xadn Correa'
p3
sS'slug'
p4
S'joaquin-correa'
p5
s.(dp0
S'crawled'
p1
I0
sS'name'
p2
S'Johannes Geis'
p3
sS'slug'
p4
S'johannes-geis'
p5
s.(dp0
S'crawled'
p1
I0
sS'name'
p2
S'Michael Krohn-De'
p3
sS'slug'
p4
S'michael-krohn-dehli'
p5
s.(dp0
S'crawled'
p1
I0
sS'name'
p2
S'Guido Pizarro'
p3
sS'slug'
p4
S'guido-pizarro'
p5
s.(dp0
S'crawled'
p1
I0
sS'name'
p2
S"Steven N'Zonzi"
p3
sS'slug'
p4
S'steven-nzonzi'
p5
s.(dp0
S'crawled'
p1
I0
sS'name'
p2
S'Jes\xc3\xbas Navas'
p3
sS'slug'
p4
S'jesus-navas'
p5
s.(dp0
S'crawled'
p1
I0
sS'name'
p2
S'Pablo Sarabia'
p3
sS'slug'
p4
S'pablo-sarabia'
p5
s.(dp0
S'crawled'
p1
I0
sS'name'
p2
S'Franco V\xc3\xa1zquez'
p3
sS'slug'
p4
S'franco-vazquez'
p5
s.(dp0
S'crawled'
p1
I0
sS'name'
p2
S'Borja Lasso'
p3
sS'slug'
p4
S'borja-lasso'
p5
s.(dp0
S'crawled'
p1
I0
sS'name'
p2
S'Wissam Ben Yedde'
p3
sS'slug'
p4
S'wissam-ben-yedder'
p5
s.(dp0
S'crawled'
p1
I0
sS'name'
p2
S'Luis Muriel'
p3
sS'slug'
p4
S'luis-muriel'
p5
s.(dp0
S'crawled'
p1
I0
sS'name'
p2
S'Sandro Ram\xc3\xadrez'
p3
sS'slug'
p4
S'sandro-ramirez'
p5
s.(dp0
S'crawled'
p1
I0
sS'name'
p2
S'Nolito'
p3
sS'slug'
p4
S'nolito'
p5
s.(dp0
S'crawled'
p1
I0
sS'name'
p2
S'Carlos Fern\xc3\xa1nde'
p3
sS'slug'
p4
S'carlos-fernandez'
p5
s.(dp0
S'crawled'
p1
I0
sS'name'
p2
S'Kevin Trapp'
p3
sS'slug'
p4
S'kevin-trapp'
p5
s.(dp0
S'crawled'
p1
I0
sS'name'
p2
S'Alphonse Areola'
p3
sS'slug'
p4
S'alphonse-areola'
p5
s.(dp0
S'crawled'
p1
I0
sS'name'
p2
S'Remy Descamps'
p3
sS'slug'
p4
S'remy-descamps'
p5
s.(dp0
S'crawled'
p1
I0
sS'name'
p2
S'Sebastien Cibois'
p3
sS'slug'
p4
S'alec-georgen'
p5
s.(dp0
S'crawled'
p1
I0
sS'name'
p2
S'Alec Georgen'
p3
sS'slug'
p4
S'kevin-rimane'
p5
s.(dp0
S'crawled'
p1
I0
sS'name'
p2
S'Kevin Rimane'
p3
sS'slug'
p4
S'thiago-silva'
p5
s.(dp0
S'crawled'
p1
I0
sS'name'
p2
S'Thiago Silva'
p3
sS'slug'
p4
S'presnel-kimpembe'
p5
s.(dp0
S'crawled'
p1
I0
sS'name'
p2
S'Presnel Kimpembe'
p3
sS'slug'
p4
S'marquinhos'
p5
s.(dp0
S'crawled'
p1
I0
sS'name'
p2
S'Marquinhos'
p3
sS'slug'
p4
S'thomas-meunier'
p5
s.(dp0
S'crawled'
p1
I0
sS'name'
p2
S'Thomas Meunier'
p3
sS'slug'
p4
S'yuri-berchiche-izeta'
p5
s.(dp0
S'crawled'
p1
I0
sS'name'
p2
S'Yuri'
p3
sS'slug'
p4
S'layvin-kurzawa'
p5
s.(dp0
S'crawled'
p1
I0
sS'name'
p2
S'Layvin Kurzawa'
p3
sS'slug'
p4
S'dani-alves'
p5
s.(dp0
S'crawled'
p1
I0
sS'name'
p2
S'Dani Alves'
p3
sS'slug'
p4
S'lorenzo-callegari'
p5
s.(dp0
S'crawled'
p1
I0
sS'name'
p2
S'Lorenzo Callegar'
p3
sS'slug'
p4
S'marco-verratti'
p5
s.(dp0
S'crawled'
p1
I0
sS'name'
p2
S"Stanley N'Soki"
p3
sS'slug'
p4
S'goncalo-guedes'
p5
s.(dp0
S'crawled'
p1
I0
sS'name'
p2
S'Yacine Adli'
p3
sS'slug'
p4
S'thiago-motta'
p5
s.(dp0
S'crawled'
p1
I0
sS'name'
p2
S'Marco Verratti'
p3
sS'slug'
p4
S'angel-di-maria'
p5
s.(dp0
S'crawled'
p1
I0
sS'name'
p2
S'Gon\xc3\xa7alo Guedes'
p3
sS'slug'
p4
S'giovani-lo-celso'
p5
s.(dp0
S'crawled'
p1
I0
sS'name'
p2
S'Thiago Motta'
p3
sS'slug'
p4
S'lass-diarra'
p5
s.(dp0
S'crawled'
p1
I0
sS'name'
p2
S'\xc3\x81ngel Di Mar\xc3\xada'
p3
sS'slug'
p4
S'grzegorz-krychowiak'
p5
s.(dp0
S'crawled'
p1
I0
sS'name'
p2
S'Giovani Lo Celso'
p3
sS'slug'
p4
S'hatem-ben-arfa'
p5
s.(dp0
S'crawled'
p1
I0
sS'name'
p2
S'Lass Diarra'
p3
sS'slug'
p4
S'julian-draxler'
p5
s.(dp0
S'crawled'
p1
I0
sS'name'
p2
S'Grzegorz Krychow'
p3
sS'slug'
p4
S'christopher-nkunku'
p5
s.(dp0
S'crawled'
p1
I0
sS'name'
p2
S'Hatem Ben Arfa'
p3
sS'slug'
p4
S'adrien-rabiot'
p5
s.(dp0
S'crawled'
p1
I0
sS'name'
p2
S'Julian Draxler'
p3
sS'slug'
p4
S'javier-pastore'
p5
s.(dp0
S'crawled'
p1
I0
sS'name'
p2
S'Christopher Nkun'
p3
sS'slug'
p4
S'edinson-cavani'
p5
s.(dp0
S'crawled'
p1
I0
sS'name'
p2
S'Adrien Rabiot'
p3
sS'slug'
p4
S'neymar'
p5
s.(dp0
S'crawled'
p1
I0
sS'name'
p2
S'Javier Pastore'
p3
sS'slug'
p4
S'kylian-mbappe-lottin'
p5
s.(dp0
S'crawled'
p1
I0
sS'name'
p2
S'\xc3\x81lvaro Fern\xc3\xa1nd'
p3
sS'slug'
p4
S'alvaro-fernandez-fernandez'
p5
s.(dp0
S'crawled'
p1
I0
sS'name'
p2
S'Danijel Subasic'
p3
sS'slug'
p4
S'danijel-subasic'
p5
s.(dp0
S'crawled'
p1
I0
sS'name'
p2
S'Diego Benaglio'
p3
sS'slug'
p4
S'diego-benaglio'
p5
s.(dp0
S'crawled'
p1
I0
sS'name'
p2
S'Seydou Sy'
p3
sS'slug'
p4
S'seydou-sy'
p5
s.(dp0
S'crawled'
p1
I0
sS'name'
p2
S'Loic Badiashile'
p3
sS'slug'
p4
S'loic-badiashile'
p5
s.(dp0
S'crawled'
p1
I0
sS'name'
p2
S'Dinis Almeida'
p3
sS'slug'
p4
S'dinis-almeida'
p5
s.(dp0
S'crawled'
p1
I0
sS'name'
p2
S'Raphael Diarra'
p3
sS'slug'
p4
S'raphael-diarra'
p5
s.(dp0
S'crawled'
p1
I0
sS'name'
p2
S'Terence Kongolo'
p3
sS'slug'
p4
S'terence-kongolo'
p5
s.(dp0
S'crawled'
p1
I0
sS'name'
p2
S'Jemerson'
p3
sS'slug'
p4
S'jemerson'
p5
s.(dp0
S'crawled'
p1
I0
sS'name'
p2
S'Jorge'
p3
sS'slug'
p4
S'jorge'
p5
s.(dp0
S'crawled'
p1
I0
sS'name'
p2
S'Djibril Sidibe'
p3
sS'slug'
p4
S'djibril-sidibe'
p5
s.(dp0
S'crawled'
p1
I0
sS'name'
p2
S'Julien Serrano'
p3
sS'slug'
p4
S'pierre-daniel-nguinda-ndiffon'
p5
s.(dp0
S'crawled'
p1
I0
sS'name'
p2
S'Pierre-Daniel Ng'
p3
sS'slug'
p4
S'andrea-raggi'
p5
s.(dp0
S'crawled'
p1
I0
sS'name'
p2
S'Andrea Raggi'
p3
sS'slug'
p4
S'kamil-glik'
p5
s.(dp0
S'crawled'
p1
I0
sS'name'
p2
S'Kamil Glik'
p3
sS'slug'
p4
S'kevin-ndoram'
p5
s.(dp0
S'crawled'
p1
I0
sS'name'
p2
S"Kevin N'Doram"
p3
sS'slug'
p4
S'almamy-toure'
p5
s.(dp0
S'crawled'
p1
I0
sS'name'
p2
S'Almamy Tour\xc3\xa9'
p3
sS'slug'
p4
S'fabinho-tavares'
p5
s.(dp0
S'crawled'
p1
I0
sS'name'
p2
S'Romain Faivre'
p3
sS'slug'
p4
S'rachid-ghezzal'
p5
s.(dp0
S'crawled'
p1
I0
sS'name'
p2
S'Fabinho'
p3
sS'slug'
p4
S'joao-moutinho'
p5
s.(dp0
S'crawled'
p1
I0
sS'name'
p2
S'Rachid Ghezzal'
p3
sS'slug'
p4
S'youri-tielemans'
p5
s.(dp0
S'crawled'
p1
I0
sS'name'
p2
S'Jo\xc3\xa3o Moutinho'
p3
sS'slug'
p4
S'soualiho-meite'
p5
s.(dp0
S'crawled'
p1
I0
sS'name'
p2
S'Youri Tielemans'
p3
sS'slug'
p4
S'rony-lopes'
p5
s.(dp0
S'crawled'
p1
I0
sS'name'
p2
S'Soualiho Meit\xc3\xa9'
p3
sS'slug'
p4
S'boschilia'
p5
s.(dp0
S'crawled'
p1
I0
sS'name'
p2
S'Rony Lopes'
p3
sS'slug'
p4
S'thomas-lemar'
p5
s.(dp0
S'crawled'
p1
I0
sS'name'
p2
S'Gabriel Boschili'
p3
sS'slug'
p4
S'adama-traore-traore'
p5
s.(dp0
S'crawled'
p1
I0
sS'name'
p2
S'Thomas Lemar'
p3
sS'slug'
p4
S'lacina-traore'
p5
s.(dp0
S'crawled'
p1
I0
sS'name'
p2
S'Adama Traor\xc3\xa9'
p3
sS'slug'
p4
S'falcao'
p5
s.(dp0
S'crawled'
p1
I0
sS'name'
p2
S'Lacina Traor\xc3\xa9'
p3
sS'slug'
p4
S'stevan-jovetic'
p5
s.(dp0
S'crawled'
p1
I0
sS'name'
p2
S'Falcao'
p3
sS'slug'
p4
S'guido-carrillo'
p5
s.(dp0
S'crawled'
p1
I0
sS'name'
p2
S'Stevan Jovetic'
p3
sS'slug'
p4
S'keita'
p5
s.(dp0
S'crawled'
p1
I0
sS'name'
p2
S'Guido Carrillo'
p3
sS'slug'
p4
S'adama-diakhaby'
p5
s.(dp0
S'crawled'
p1
I0
sS'name'
p2
S'Keita'
p3
sS'slug'
p4
S'jordi-mboula'
p5
s.(dp0
S'crawled'
p1
I0
sS'name'
p2
S'Adama Diakhaby'
p3
sS'slug'
p4
S'moussa-sylla'
p5
s.(dp0
S'crawled'
p1
I0
sS'name'
p2
S'Gianluigi Buffon'
p3
sS'slug'
p4
S'gianluigi-buffon'
p5
s.(dp0
S'crawled'
p1
I0
sS'name'
p2
S'Carlo Pinsoglio'
p3
sS'slug'
p4
S'carlo-pinsoglio'
p5
s.(dp0
S'crawled'
p1
I0
sS'name'
p2
S'Wojciech Szczesn'
p3
sS'slug'
p4
S'wojciech-szczesny'
p5
s.(dp0
S'crawled'
p1
I0
sS'name'
p2
S'Mattia Del Faver'
p3
sS'slug'
p4
S'mattia-del-favero'
p5
s.(dp0
S'crawled'
p1
I0
sS'name'
p2
S'Leonardo Loria'
p3
sS'slug'
p4
S'leonardo-loria'
p5
s.(dp0
S'crawled'
p1
I0
sS'name'
p2
S'Mattia De Scigli'
p3
sS'slug'
p4
S'mattia-de-sciglio'
p5
s.(dp0
S'crawled'
p1
I0
sS'name'
p2
S'Giorgio Chiellin'
p3
sS'slug'
p4
S'giorgio-chiellini'
p5
s.(dp0
S'crawled'
p1
I0
sS'name'
p2
S'Medhi Benatia'
p3
sS'slug'
p4
S'medhi-benatia'
p5
s.(dp0
S'crawled'
p1
I0
sS'name'
p2
S'Alex Sandro'
p3
sS'slug'
p4
S'alex-sandro'
p5
s.(dp0
S'crawled'
p1
I0
sS'name'
p2
S'Andrea Barzagli'
p3
sS'slug'
p4
S'andrea-barzagli'
p5
s.(dp0
S'crawled'
p1
I0
sS'name'
p2
S'Benedikt H\xc3\xb6wede'
p3
sS'slug'
p4
S'benedikt-howedes'
p5
s.(dp0
S'crawled'
p1
I0
sS'name'
p2
S'Daniele Rugani'
p3
sS'slug'
p4
S'daniele-rugani'
p5
s.(dp0
S'crawled'
p1
I0
sS'name'
p2
S'Stephan Lichtste'
p3
sS'slug'
p4
S'stephan-lichtsteiner'
p5
s.(dp0
S'crawled'
p1
I0
sS'name'
p2
S'Leandro Fernande'
p3
sS'slug'
p4
S'miralem-pjanic'
p5
s.(dp0
S'crawled'
p1
I0
sS'name'
p2
S'Miralem Pjanic'
p3
sS'slug'
p4
S'sami-khedira'
p5
s.(dp0
S'crawled'
p1
I0
sS'name'
p2
S'Sami Khedira'
p3
sS'slug'
p4
S'juan-cuadrado'
p5
s.(dp0
S'crawled'
p1
I0
sS'name'
p2
S'Juan Cuadrado'
p3
sS'slug'
p4
S'claudio-marchisio'
p5
s.(dp0
S'crawled'
p1
I0
sS'name'
p2
S'Claudio Marchisi'
p3
sS'slug'
p4
S'douglas-costa'
p5
s.(dp0
S'crawled'
p1
I0
sS'name'
p2
S'Douglas Costa'
p3
sS'slug'
p4
S'blaise-matuidi'
p5
s.(dp0
S'crawled'
p1
I0
sS'name'
p2
S'Blaise Matuidi'
p3
sS'slug'
p4
S'marko-pjaca'
p5
s.(dp0
S'crawled'
p1
I0
sS'name'
p2
S'Marko Pjaca'
p3
sS'slug'
p4
S'kwadwo-asamoah'
p5
s.(dp0
S'crawled'
p1
I0
sS'name'
p2
S'Kwadwo Asamoah'
p3
sS'slug'
p4
S'stefano-sturaro'
p5
s.(dp0
S'crawled'
p1
I0
sS'name'
p2
S'Stefano Sturaro'
p3
sS'slug'
p4
S'rodrigo-bentancur'
p5
s.(dp0
S'crawled'
p1
I0
sS'name'
p2
S'Rodrigo Bentancu'
p3
sS'slug'
p4
S'ferdinando-del-sole'
p5
s.(dp0
S'crawled'
p1
I0
sS'name'
p2
S'Leonardo Merio'
p3
sS'slug'
p4
S'gonzalo-higuain'
p5
s.(dp0
S'crawled'
p1
I0
sS'name'
p2
S'Ferdinando Del S'
p3
sS'slug'
p4
S'moise-kean'
p5
s.(dp0
S'crawled'
p1
I0
sS'name'
p2
S'Simone Muratore'
p3
sS'slug'
p4
S'paulo-dybala'
p5
s.(dp0
S'crawled'
p1
I0
sS'name'
p2
S'Fabrizio Caligar'
p3
sS'slug'
p4
S'mario-mandzukic'
p5
s.(dp0
S'crawled'
p1
I0
sS'name'
p2
S'Gonzalo Higua\xc3\xadn'
p3
sS'slug'
p4
S'federico-bernardeschi'
p5
s.(dp0
S'crawled'
p1
I0
sS'name'
p2
S'Alisson'
p3
sS'slug'
p4
S'alisson'
p5
s.(dp0
S'crawled'
p1
I0
sS'name'
p2
S'Andrea Romagnoli'
p3
sS'slug'
p4
S'andrea-romagnoli'
p5
s.(dp0
S'crawled'
p1
I0
sS'name'
p2
S'Bogdan Lobont'
p3
sS'slug'
p4
S'bogdan-lobont'
p5
s.(dp0
S'crawled'
p1
I0
sS'name'
p2
S'Lukasz Skorupski'
p3
sS'slug'
p4
S'lukasz-skorupski'
p5
s.(dp0
S'crawled'
p1
I0
sS'name'
p2
S'Luca Pellegrini'
p3
sS'slug'
p4
S'luca-pellegrini'
p5
s.(dp0
S'crawled'
p1
I0
sS'name'
p2
S'Jonathan Silva'
p3
sS'slug'
p4
S'jonathan-silva'
p5
s.(dp0
S'crawled'
p1
I0
sS'name'
p2
S'Juan Jesus'
p3
sS'slug'
p4
S'juan-jesus'
p5
s.(dp0
S'crawled'
p1
I0
sS'name'
p2
S'Aleksandar Kolar'
p3
sS'slug'
p4
S'aleksandar-kolarov'
p5
s.(dp0
S'crawled'
p1
I0
sS'name'
p2
S'Elio Capradossi'
p3
sS'slug'
p4
S'elio-capradossi'
p5
s.(dp0
S'crawled'
p1
I0
sS'name'
p2
S'H\xc3\xa9ctor Moreno'
p3
sS'slug'
p4
S'hector-moreno'
p5
s.(dp0
S'crawled'
p1
I0
sS'name'
p2
S'Federico Fazio'
p3
sS'slug'
p4
S'federico-fazio'
p5
s.(dp0
S'crawled'
p1
I0
sS'name'
p2
S'Abdullahi Nura'
p3
sS'slug'
p4
S'abdullahi-nura'
p5
s.(dp0
S'crawled'
p1
I0
sS'name'
p2
S'Bruno Peres'
p3
sS'slug'
p4
S'bruno-peres'
p5
s.(dp0
S'crawled'
p1
I0
sS'name'
p2
S'Rick Karsdorp'
p3
sS'slug'
p4
S'rick-karsdorp'
p5
s.(dp0
S'crawled'
p1
I0
sS'name'
p2
S'Stefano Ciavatti'
p3
sS'slug'
p4
S'kostas-manolas'
p5
s.(dp0
S'crawled'
p1
I0
sS'name'
p2
S'Kostas Manolas'
p3
sS'slug'
p4
S'leandro-castan'
p5
s.(dp0
S'crawled'
p1
I0
sS'name'
p2
S'Leandro Cast\xc3\xa1n'
p3
sS'slug'
p4
S'radja-nainggolan'
p5
s.(dp0
S'crawled'
p1
I0
sS'name'
p2
S'Devid Eugene Bou'
p3
sS'slug'
p4
S'kevin-strootman'
p5
s.(dp0
S'crawled'
p1
I0
sS'name'
p2
S'Radja Nainggolan'
p3
sS'slug'
p4
S'lorenzo-pellegrini'
p5
s.(dp0
S'crawled'
p1
I0
sS'name'
p2
S'Kevin Strootman'
p3
sS'slug'
p4
S'daniele-de-rossi'
p5
s.(dp0
S'crawled'
p1
I0
sS'name'
p2
S'Lorenzo Pellegri'
p3
sS'slug'
p4
S'cengiz-under'
p5
s.(dp0
S'crawled'
p1
I0
sS'name'
p2
S'Daniele De Rossi'
p3
sS'slug'
p4
S'maxime-gonalons'
p5
s.(dp0
S'crawled'
p1
I0
sS'name'
p2
S'Cengiz \xc3\x9cnder'
p3
sS'slug'
p4
S'alessandro-florenzi'
p5
s.(dp0
S'crawled'
p1
I0
sS'name'
p2
S'Maxime Gonalons'
p3
sS'slug'
p4
S'gerson-santos-da-silva'
p5
s.(dp0
S'crawled'
p1
I0
sS'name'
p2
S'Alessandro Flore'
p3
sS'slug'
p4
S'diego-perotti'
p5
s.(dp0
S'crawled'
p1
I0
sS'name'
p2
S'Gerson'
p3
sS'slug'
p4
S'edin-dzeko'
p5
s.(dp0
S'crawled'
p1
I0
sS'name'
p2
S'Lorenzo Valeau'
p3
sS'slug'
p4
S'patrik-schick'
p5
s.(dp0
S'crawled'
p1
I0
sS'name'
p2
S'Mirko Antonucci'
p3
sS'slug'
p4
S'gregoire-defrel'
p5
s.(dp0
S'crawled'
p1
I0
sS'name'
p2
S'Alessio Riccardi'
p3
sS'slug'
p4
S'marco-tumminello'
p5
s.(dp0
S'crawled'
p1
I0
sS'name'
p2
S'Andrea Marcucci'
p3
sS'slug'
p4
S'stephan-el-shaarawy'
p5
s.(dp0
S'crawled'
p1
I0
sS'name'
p2
S'Thomas Strakosha'
p3
sS'slug'
p4
S'thomas-strakosha'
p5
s.(dp0
S'crawled'
p1
I0
sS'name'
p2
S'Federico Marchet'
p3
sS'slug'
p4
S'federico-marchetti'
p5
s.(dp0
S'crawled'
p1
I0
sS'name'
p2
S'Guido Guerrieri'
p3
sS'slug'
p4
S'guido-guerrieri'
p5
s.(dp0
S'crawled'
p1
I0
sS'name'
p2
S'Ivan Vargic'
p3
sS'slug'
p4
S'ivan-vargic'
p5
s.(dp0
S'crawled'
p1
I0
sS'name'
p2
S'Stefan de Vrij'
p3
sS'slug'
p4
S'stefan-de-vrij'
p5
s.(dp0
S'crawled'
p1
I0
sS'name'
p2
S'Patric'
p3
sS'slug'
p4
S'patric'
p5
s.(dp0
S'crawled'
p1
I0
sS'name'
p2
S'Jordan Lukaku'
p3
sS'slug'
p4
S'jordan-lukaku'
p5
s.(dp0
S'crawled'
p1
I0
sS'name'
p2
S'Dusan Basta'
p3
sS'slug'
p4
S'dusan-basta'
p5
s.(dp0
S'crawled'
p1
I0
sS'name'
p2
S'Wallace'
p3
sS'slug'
p4
S'wallace-fortuna-dos-santos'
p5
s.(dp0
S'crawled'
p1
I0
sS'name'
p2
S'Bastos'
p3
sS'slug'
p4
S'bastos'
p5
s.(dp0
S'crawled'
p1
I0
sS'name'
p2
S'Mart\xc3\xadn C\xc3\xa1ceres'
p3
sS'slug'
p4
S'martin-caceres'
p5
s.(dp0
S'crawled'
p1
I0
sS'name'
p2
S'Stefan Radu'
p3
sS'slug'
p4
S'stefan-radu'
p5
s.(dp0
S'crawled'
p1
I0
sS'name'
p2
S'Luiz Felipe'
p3
sS'slug'
p4
S'luiz-felipe-ramos-marchi'
p5
s.(dp0
S'crawled'
p1
I0
sS'name'
p2
S'Nicol\xc3\xb2 Armini'
p3
sS'slug'
p4
S'mauricio-dos-santos-nascimento'
p5
s.(dp0
S'crawled'
p1
I0
sS'name'
p2
S'Mauricio'
p3
sS'slug'
p4
S'adam-marusic'
p5
s.(dp0
S'crawled'
p1
I0
sS'name'
p2
S'Adam Marusic'
p3
sS'slug'
p4
S'lucas-leiva'
p5
s.(dp0
S'crawled'
p1
I0
sS'name'
p2
S'Lucas Leiva'
p3
sS'slug'
p4
S'felipe-anderson'
p5
s.(dp0
S'crawled'
p1
I0
sS'name'
p2
S'Felipe Anderson'
p3
sS'slug'
p4
S'luca-crecco'
p5
s.(dp0
S'crawled'
p1
I0
sS'name'
p2
S'Luca Crecco'
p3
sS'slug'
p4
S'marco-parolo'
p5
s.(dp0
S'crawled'
p1
I0
sS'name'
p2
S'Marco Parolo'
p3
sS'slug'
p4
S'luis-alberto'
p5
s.(dp0
S'crawled'
p1
I0
sS'name'
p2
S'Luis Alberto'
p3
sS'slug'
p4
S'senad-lulic'
p5
s.(dp0
S'crawled'
p1
I0
sS'name'
p2
S'Senad Lulic'
p3
sS'slug'
p4
S'sergej-milinkovic-savic'
p5
s.(dp0
S'crawled'
p1
I0
sS'name'
p2
S'Sergej Milinkovi'
p3
sS'slug'
p4
S'bruno-jordao'
p5
s.(dp0
S'crawled'
p1
I0
sS'name'
p2
S'Alessio Miceli'
p3
sS'slug'
p4
S'christopher-oikonomidis'
p5
s.(dp0
S'crawled'
p1
I0
sS'name'
p2
S'Bruno Jordao'
p3
sS'slug'
p4
S'davide-di-gennaro'
p5
s.(dp0
S'crawled'
p1
I0
sS'name'
p2
S'Christopher Ikon'
p3
sS'slug'
p4
S'alessandro-murgia'
p5
s.(dp0
S'crawled'
p1
I0
sS'name'
p2
S'Davide Di Gennar'
p3
sS'slug'
p4
S'abukar-mohamed'
p5
s.(dp0
S'crawled'
p1
I0
sS'name'
p2
S'Alessandro Murgi'
p3
sS'slug'
p4
S'nani'
p5
s.(dp0
S'crawled'
p1
I0
sS'name'
p2
S'Abukar Mohamed'
p3
sS'slug'
p4
S'filip-djordjevic'
p5
s.(dp0
S'crawled'
p1
I0
sS'name'
p2
S'Nani'
p3
sS'slug'
p4
S'ricardo-kishna'
p5
s.(dp0
S'crawled'
p1
I0
sS'name'
p2
S'Filip Djordjevic'
p3
sS'slug'
p4
S'keita'
p5
s.(dp0
S'crawled'
p1
I0
sS'name'
p2
S'Ricardo Kishna'
p3
sS'slug'
p4
S'ciro-immobile'
p5
s.(dp0
S'crawled'
p1
I0
sS'name'
p2
S'Keita'
p3
sS'slug'
p4
S'felipe-caicedo'
p5
s.(dp0
S'crawled'
p1
I0
sS'name'
p2
S'Ciro Immobile'
p3
sS'slug'
p4
S'simone-palombi'
p5
s.(dp0
S'crawled'
p1
I0
sS'name'
p2
S'Felipe Caicedo'
p3
sS'slug'
p4
S'pedro-neto'
p5
s.(dp0
S'crawled'
p1
I0
sS'name'
p2
S'Simone Palombi'
p3
sS'slug'
p4
S'brayan-perea'
p5
s.(dp0
S'crawled'
p1
I0
sS'name'
p2
S'Pedro Neto'
p3
sS'slug'
p4
S'cristiano-lombardi'
p5
s.(dp0
S'crawled'
p1
I0
sS'name'
p2
S'Brayan Perea'
p3
sS'slug'
p4
S'alessandro-rossi'
p5
s.(dp0
S'crawled'
p1
I0
sS'name'
p2
S'Rafael Cabral'
p3
sS'slug'
p4
S'rafael-cabral'
p5
s.(dp0
S'crawled'
p1
I0
sS'name'
p2
S'Luigi Sepe'
p3
sS'slug'
p4
S'luigi-sepe'
p5
s.(dp0
S'crawled'
p1
I0
sS'name'
p2
S'Jos\xc3\xa9 Reina'
p3
sS'slug'
p4
S'jose-reina'
p5
s.(dp0
S'crawled'
p1
I0
sS'name'
p2
S'M\xc3\xa1rio Rui'
p3
sS'slug'
p4
S'mario-rui'
p5
s.(dp0
S'crawled'
p1
I0
sS'name'
p2
S'Christian Maggio'
p3
sS'slug'
p4
S'christian-maggio'
p5
s.(dp0
S'crawled'
p1
I0
sS'name'
p2
S'Micheal Scarf'
p3
sS'slug'
p4
S'hrvoje-milic'
p5
s.(dp0
S'crawled'
p1
I0
sS'name'
p2
S'Hrvoje Milic'
p3
sS'slug'
p4
S'vlad-chiriches'
p5
s.(dp0
S'crawled'
p1
I0
sS'name'
p2
S'Vlad Chiriches'
p3
sS'slug'
p4
S'elseid-hysaj'
p5
s.(dp0
S'crawled'
p1
I0
sS'name'
p2
S'Elseid Hysaj'
p3
sS'slug'
p4
S'kalidou-koulibaly'
p5
s.(dp0
S'crawled'
p1
I0
sS'name'
p2
S'Kalidou Koulibal'
p3
sS'slug'
p4
S'faouzi-ghoulam'
p5
s.(dp0
S'crawled'
p1
I0
sS'name'
p2
S'Faouzi Ghoulam'
p3
sS'slug'
p4
S'raul-albiol'
p5
s.(dp0
S'crawled'
p1
I0
sS'name'
p2
S'Ra\xc3\xbal Albiol'
p3
sS'slug'
p4
S'lorenzo-tonelli'
p5
s.(dp0
S'crawled'
p1
I0
sS'name'
p2
S'Lorenzo Tonelli'
p3
sS'slug'
p4
S'leandrinho-do-nascimento'
p5
s.(dp0
S'crawled'
p1
I0
sS'name'
p2
S'Leandrinho'
p3
sS'slug'
p4
S'allan'
p5
s.(dp0
S'crawled'
p1
I0
sS'name'
p2
S'Allan'
p3
sS'slug'
p4
S'zinedine-machach'
p5
s.(dp0
S'crawled'
p1
I0
sS'name'
p2
S'Zinedine Machach'
p3
sS'slug'
p4
S'jorginho'
p5
s.(dp0
S'crawled'
p1
I0
sS'name'
p2
S'Jorginho'
p3
sS'slug'
p4
S'emanuele-giaccherini'
p5
s.(dp0
S'crawled'
p1
I0
sS'name'
p2
S'Emanuele Giacche'
p3
sS'slug'
p4
S'marek-hamsik'
p5
s.(dp0
S'crawled'
p1
I0
sS'name'
p2
S'Marek Hamsik'
p3
sS'slug'
p4
S'piotr-zielinski'
p5
s.(dp0
S'crawled'
p1
I0
sS'name'
p2
S'Piotr Zielinski'
p3
sS'slug'
p4
S'marko-rog'
p5
s.(dp0
S'crawled'
p1
I0
sS'name'
p2
S'Marko Rog'
p3
sS'slug'
p4
S'adam-ounas'
p5
s.(dp0
S'crawled'
p1
I0
sS'name'
p2
S'Adam Ounas'
p3
sS'slug'
p4
S'amadou-diawara'
p5
s.(dp0
S'crawled'
p1
I0
sS'name'
p2
S'Amadou Diawara'
p3
sS'slug'
p4
S'jose-callejon'
p5
s.(dp0
S'crawled'
p1
I0
sS'name'
p2
S'Jos\xc3\xa9 Callej\xc3\xb3n'
p3
sS'slug'
p4
S'dries-mertens'
p5
s.(dp0
S'crawled'
p1
I0
sS'name'
p2
S'Dries Mertens'
p3
sS'slug'
p4
S'lorenzo-insigne'
p5
s.(dp0
S'crawled'
p1
I0
sS'name'
p2
S'Lorenzo Insigne'
p3
sS'slug'
p4
S'alessio-zerbin'
p5
s.(dp0
S'crawled'
p1
I0
sS'name'
p2
S'Alessio Zerbin'
p3
sS'slug'
p4
S'arkadiusz-milik'
p5
s.(dp0
S'crawled'
p1
I0
sS'name'
p2
S'Michele Cerofoli'
p3
sS'slug'
p4
S'marco-sportiello'
p5
s.(dp0
S'crawled'
p1
I0
sS'name'
p2
S'Simone Ghidotti'
p3
sS'slug'
p4
S'bartlomiej-dragowski'
p5
s.(dp0
S'crawled'
p1
I0
sS'name'
p2
S'Marco Sportiello'
p3
sS'slug'
p4
S'vincent-laurini'
p5
s.(dp0
S'crawled'
p1
I0
sS'name'
p2
S'Bartlomiej Drago'
p3
sS'slug'
p4
S'cristiano-biraghi'
p5
s.(dp0
S'crawled'
p1
I0
sS'name'
p2
S'Vincent Laurini'
p3
sS'slug'
p4
S'vitor-hugo-franchescoli-de-souza'
p5
s.(dp0
S'crawled'
p1
I0
sS'name'
p2
S'Cristiano Biragh'
p3
sS'slug'
p4
S'nikola-milenkovic'
p5
s.(dp0
S'crawled'
p1
I0
sS'name'
p2
S'Vitor Hugo'
p3
sS'slug'
p4
S'davide-astori'
p5
s.(dp0
S'crawled'
p1
I0
sS'name'
p2
S'Nikola Milenkovi'
p3
sS'slug'
p4
S'maximiliano-olivera'
p5
s.(dp0
S'crawled'
p1
I0
sS'name'
p2
S'Davide Astori'
p3
sS'slug'
p4
S'german-pezzella'
p5
s.(dp0
S'crawled'
p1
I0
sS'name'
p2
S'Maximiliano Oliv'
p3
sS'slug'
p4
S'bruno-gaspar'
p5
s.(dp0
S'crawled'
p1
I0
sS'name'
p2
S'Germ\xc3\xa1n Pezzella'
p3
sS'slug'
p4
S'milan-badelj'
p5
s.(dp0
S'crawled'
p1
I0
sS'name'
p2
S'Luca Ranieri'
p3
sS'slug'
p4
S'carlos-sanchez'
p5
s.(dp0
S'crawled'
p1
I0
sS'name'
p2
S'Riccardo Baroni'
p3
sS'slug'
p4
S'bryan-dabo'
p5
s.(dp0
S'crawled'
p1
I0
sS'name'
p2
S'Petko Hristov'
p3
sS'slug'
p4
S'riccardo-saponara'
p5
s.(dp0
S'crawled'
p1
I0
sS'name'
p2
S'Bruno Gaspar'
p3
sS'slug'
p4
S'valentin-eysseric'
p5
s.(dp0
S'crawled'
p1
I0
sS'name'
p2
S'Joshua P\xc3\xa9rez'
p3
sS'slug'
p4
S'ianis-hagi'
p5
s.(dp0
S'crawled'
p1
I0
sS'name'
p2
S'Milan Badelj'
p3
sS'slug'
p4
S'matias-fernandez'
p5
s.(dp0
S'crawled'
p1
I0
sS'name'
p2
S'Carlos S\xc3\xa1nchez'
p3
sS'slug'
p4
S'jordan-veretout'
p5
s.(dp0
S'crawled'
p1
I0
sS'name'
p2
S'Bryan Dabo'
p3
sS'slug'
p4
S'sebastian-cristoforo'
p5
s.(dp0
S'crawled'
p1
I0
sS'name'
p2
S'Riccardo Saponar'
p3
sS'slug'
p4
S'marco-benassi'
p5
s.(dp0
S'crawled'
p1
I0
sS'name'
p2
S'Valentin Eysseri'
p3
sS'slug'
p4
S'andres-schetino'
p5
s.(dp0
S'crawled'
p1
I0
sS'name'
p2
S'Ianis Hagi'
p3
sS'slug'
p4
S'gil-dias'
p5
s.(dp0
S'crawled'
p1
I0
sS'name'
p2
S'Mat\xc3\xadas Fern\xc3\xa1nd'
p3
sS'slug'
p4
S'jaime-baez'
p5
s.(dp0
S'crawled'
p1
I0
sS'name'
p2
S'Jordan Veretout'
p3
sS'slug'
p4
S'ante-rebic'
p5
s.(dp0
S'crawled'
p1
I0
sS'name'
p2
S'Sebasti\xc3\xa1n Crist'
p3
sS'slug'
p4
S'giovanni-simeone'
p5
s.(dp0
S'crawled'
p1
I0
sS'name'
p2
S'Marco Benassi'
p3
sS'slug'
p4
S'federico-chiesa'
p5
s.(dp0
S'crawled'
p1
I0
sS'name'
p2
S'Andr\xc3\xa9s Schetino'
p3
sS'slug'
p4
S'simone-lo-faso'
p5
s.(dp0
S'crawled'
p1
I0
sS'name'
p2
S'Fabio Maistro'
p3
sS'slug'
p4
S'khouma-babacar'
p5
s.(dp0
S'crawled'
p1
I0
sS'name'
p2
S'Gil Dias'
p3
sS'slug'
p4
S'cyril-thereau'
p5
s.(dp0
S'crawled'
p1
I0
sS'name'
p2
S'Mile Svilar'
p3
sS'slug'
p4
S'mile-svilar'
p5
s.(dp0
S'crawled'
p1
I0
sS'name'
p2
S'Julio C\xc3\xa9sar'
p3
sS'slug'
p4
S'julio-cesar'
p5
s.(dp0
S'crawled'
p1
I0
sS'name'
p2
S'Paulo Lopes'
p3
sS'slug'
p4
S'paulo-lopes'
p5
s.(dp0
S'crawled'
p1
I0
sS'name'
p2
S'Bruno Varela'
p3
sS'slug'
p4
S'bruno-varela'
p5
s.(dp0
S'crawled'
p1
I0
sS'name'
p2
S'F\xc3\xa1bio Duarte'
p3
sS'slug'
p4
S'lisandro-lopez-lopez'
p5
s.(dp0
S'crawled'
p1
I0
sS'name'
p2
S'Lisandro L\xc3\xb3pez'
p3
sS'slug'
p4
S'alejandro-grimaldo'
p5
s.(dp0
S'crawled'
p1
I0
sS'name'
p2
S'Alejandro Grimal'
p3
sS'slug'
p4
S'luisao'
p5
s.(dp0
S'crawled'
p1
I0
sS'name'
p2
S'Luis\xc3\xa3o'
p3
sS'slug'
p4
S'douglas-pereira-dos-santos'
p5
s.(dp0
S'crawled'
p1
I0
sS'name'
p2
S'Douglas'
p3
sS'slug'
p4
S'branimir-kalaica'
p5
s.(dp0
S'crawled'
p1
I0
sS'name'
p2
S'Branimir Kalaica'
p3
sS'slug'
p4
S'eliseu'
p5
s.(dp0
S'crawled'
p1
I0
sS'name'
p2
S'Eliseu'
p3
sS'slug'
p4
S'jardel'
p5
s.(dp0
S'crawled'
p1
I0
sS'name'
p2
S'Jardel'
p3
sS'slug'
p4
S'ruben-dias'
p5
s.(dp0
S'crawled'
p1
I0
sS'name'
p2
S'R\xc3\xbaben Dias'
p3
sS'slug'
p4
S'aurelio-buta'
p5
s.(dp0
S'crawled'
p1
I0
sS'name'
p2
S'Aur\xc3\xa9lio Buta'
p3
sS'slug'
p4
S'lubomir-fejsa'
p5
s.(dp0
S'crawled'
p1
I0
sS'name'
p2
S'Lubomir Fejsa'
p3
sS'slug'
p4
S'filipe-augusto'
p5
s.(dp0
S'crawled'
p1
I0
sS'name'
p2
S'Filipe Augusto'
p3
sS'slug'
p4
S'andreas-samaris'
p5
s.(dp0
S'crawled'
p1
I0
sS'name'
p2
S'Andreas Samaris'
p3
sS'slug'
p4
S'andre-horta'
p5
s.(dp0
S'crawled'
p1
I0
sS'name'
p2
S'Andr\xc3\xa9 Horta'
p3
sS'slug'
p4
S'filip-krovinovic'
p5
s.(dp0
S'crawled'
p1
I0
sS'name'
p2
S'Filip Krovinovic'
p3
sS'slug'
p4
S'franco-cervi'
p5
s.(dp0
S'crawled'
p1
I0
sS'name'
p2
S'Franco Cervi'
p3
sS'slug'
p4
S'rafa-ferreira-silva'
p5
s.(dp0
S'crawled'
p1
I0
sS'name'
p2
S'Rafa'
p3
sS'slug'
p4
S'andre-carrillo'
p5
s.(dp0
S'crawled'
p1
I0
sS'name'
p2
S'Andr\xc3\xa9 Carrillo'
p3
sS'slug'
p4
S'erdal-rakip'
p5
s.(dp0
S'crawled'
p1
I0
sS'name'
p2
S'Erdal Rakip'
p3
sS'slug'
p4
S'andre-almeida'
p5
s.(dp0
S'crawled'
p1
I0
sS'name'
p2
S'Andr\xc3\xa9 Almeida'
p3
sS'slug'
p4
S'martin-chrien'
p5
s.(dp0
S'crawled'
p1
I0
sS'name'
p2
S'Martin Chrien'
p3
sS'slug'
p4
S'diogo-goncalves'
p5
s.(dp0
S'crawled'
p1
I0
sS'name'
p2
S'Keaton Parks'
p3
sS'slug'
p4
S'joao-carvalho'
p5
s.(dp0
S'crawled'
p1
I0
sS'name'
p2
S'Diogo Gon\xc3\xa7alves'
p3
sS'slug'
p4
S'raul-jimenez'
p5
s.(dp0
S'crawled'
p1
I0
sS'name'
p2
S'Jo\xc3\xa3o Carvalho'
p3
sS'slug'
p4
S'jonas'
p5
s.(dp0
S'crawled'
p1
I0
sS'name'
p2
S'Ra\xc3\xbal Jim\xc3\xa9nez'
p3
sS'slug'
p4
S'gabriel-barbosa-almeida'
p5
s.(dp0
S'crawled'
p1
I0
sS'name'
p2
S'Jonas'
p3
sS'slug'
p4
S'kostas-mitroglou'
p5
s.(dp0
S'crawled'
p1
I0
sS'name'
p2
S'Gabriel'
p3
sS'slug'
p4
S'haris-seferovic'
p5
s.(dp0
S'crawled'
p1
I0
sS'name'
p2
S'Kostas Mitroglou'
p3
sS'slug'
p4
S'andrija-zivkovic'
p5
s.(dp0
S'crawled'
p1
I0
sS'name'
p2
S'Haris Seferovic'
p3
sS'slug'
p4
S'eduardo-salvio'
p5
s.(dp0
S'crawled'
p1
I0
sS'name'
p2
S'Andrija Zivkovic'
p3
sS'slug'
p4
S'pizzi'
p5
s.(dp0
S'crawled'
p1
I0
sS'name'
p2
S'Eduardo Salvio'
p3
sS'slug'
p4
S'oscar-benitez'
p5
s.(dp0
S'crawled'
p1
I0
sS'name'
p2
S'Pizzi'
p3
sS'slug'
p4
S'chris-willock'
p5
s.(dp0
S'crawled'
p1
I0
sS'name'
p2
S'\xc3\x93scar Ben\xc3\xadtez'
p3
sS'slug'
p4
S'jose-gomes'
p5
s.(dp0
S'crawled'
p1
I0
sS'name'
p2
S'Mykyta Shevchenk'
p3
sS'slug'
p4
S'mykyta-shevchenko'
p5
s.(dp0
S'crawled'
p1
I0
sS'name'
p2
S'Andriy Pyatov'
p3
sS'slug'
p4
S'andriy-pyatov'
p5
s.(dp0
S'crawled'
p1
I0
sS'name'
p2
S'Yevgen Grytsenko'
p3
sS'slug'
p4
S'yevgen-grytsenko'
p5
s.(dp0
S'crawled'
p1
I0
sS'name'
p2
S'Oleh Kudryk'
p3
sS'slug'
p4
S'oleh-kudryk'
p5
s.(dp0
S'crawled'
p1
I0
sS'name'
p2
S'Mykola Matvyenko'
p3
sS'slug'
p4
S'mykola-matvyenko'
p5
s.(dp0
S'crawled'
p1
I0
sS'name'
p2
S'Bogdan Butko'
p3
sS'slug'
p4
S'bogdan-butko'
p5
s.(dp0
S'crawled'
p1
I0
sS'name'
p2
S'Sergey Krivtsov'
p3
sS'slug'
p4
S'sergey-krivtsov'
p5
s.(dp0
S'crawled'
p1
I0
sS'name'
p2
S'Davit Khotcholav'
p3
sS'slug'
p4
S'davit-khotcholava'
p5
s.(dp0
S'crawled'
p1
I0
sS'name'
p2
S'Maksim Malyshev'
p3
sS'slug'
p4
S'maksim-malyshev'
p5
s.(dp0
S'crawled'
p1
I0
sS'name'
p2
S'Ivan Ordets'
p3
sS'slug'
p4
S'ivan-ordets'
p5
s.(dp0
S'crawled'
p1
I0
sS'name'
p2
S'Ismaily'
p3
sS'slug'
p4
S'ismaily'
p5
s.(dp0
S'crawled'
p1
I0
sS'name'
p2
S'Darijo Srna'
p3
sS'slug'
p4
S'darijo-srna'
p5
s.(dp0
S'crawled'
p1
I0
sS'name'
p2
S'Yaroslav Rakitsk'
p3
sS'slug'
p4
S'yaroslav-rakitskiy'
p5
s.(dp0
S'crawled'
p1
I0
sS'name'
p2
S'M\xc3\xa1rcio Azevedo'
p3
sS'slug'
p4
S'marcio-azevedo'
p5
s.(dp0
S'crawled'
p1
I0
sS'name'
p2
S'Dod\xc3\xb4'
p3
sS'slug'
p4
S'dodo-cordeiro-dos-santos'
p5
s.(dp0
S'crawled'
p1
I0
sS'name'
p2
S'Sergiy Bolbat'
p3
sS'slug'
p4
S'sergiy-bolbat'
p5
s.(dp0
S'crawled'
p1
I0
sS'name'
p2
S'Dmytro Grechyshk'
p3
sS'slug'
p4
S'dmytro-grechyshkin'
p5
s.(dp0
S'crawled'
p1
I0
sS'name'
p2
S'Taras Stepanenko'
p3
sS'slug'
p4
S'taras-stepanenko'
p5
s.(dp0
S'crawled'
p1
I0
sS'name'
p2
S'Fred'
p3
sS'slug'
p4
S'fred-rodrigues-de-paula-santos'
p5
s.(dp0
S'crawled'
p1
I0
sS'name'
p2
S'Dentinho'
p3
sS'slug'
p4
S'dentinho'
p5
s.(dp0
S'crawled'
p1
I0
sS'name'
p2
S'Bernard'
p3
sS'slug'
p4
S'bernard'
p5
s.(dp0
S'crawled'
p1
I0
sS'name'
p2
S'Marlos'
p3
sS'slug'
p4
S'marlos'
p5
s.(dp0
S'crawled'
p1
I0
sS'name'
p2
S'Alan Patrick'
p3
sS'slug'
p4
S'alan-patrick'
p5
s.(dp0
S'crawled'
p1
I0
sS'name'
p2
S'Vyacheslav Tanko'
p3
sS'slug'
p4
S'vyacheslav-tankovskyi'
p5
s.(dp0
S'crawled'
p1
I0
sS'name'
p2
S'Ivan Petryak'
p3
sS'slug'
p4
S'ivan-petryak'
p5
s.(dp0
S'crawled'
p1
I0
sS'name'
p2
S'Yuri Glushchuk'
p3
sS'slug'
p4
S'yuri-glushchuk'
p5
s.(dp0
S'crawled'
p1
I0
sS'name'
p2
S'Oleksandr Pikhal'
p3
sS'slug'
p4
S'oleksandr-pikhalyonok'
p5
s.(dp0
S'crawled'
p1
I0
sS'name'
p2
S'Viktor Kovalenko'
p3
sS'slug'
p4
S'viktor-kovalenko'
p5
s.(dp0
S'crawled'
p1
I0
sS'name'
p2
S'Olarenwaju Kayod'
p3
sS'slug'
p4
S'olarenwaju-kayode'
p5
s.(dp0
S'crawled'
p1
I0
sS'name'
p2
S'Taison'
p3
sS'slug'
p4
S'taison'
p5
s.(dp0
S'crawled'
p1
I0
sS'name'
p2
S'Facundo Ferreyra'
p3
sS'slug'
p4
S'facundo-ferreyra'
p5
s.(dp0
S'crawled'
p1
I0
sS'name'
p2
S'Oleksandr Zubkov'
p3
sS'slug'
p4
S'oleksandr-zubkov'
p5
s.(dp0
S'crawled'
p1
I0
sS'name'
p2
S'Artem Dudik'
p3
sS'slug'
p4
S'artem-dudik'
p5
s.(dp0
S'crawled'
p1
I0
sS'name'
p2
S'Gustavo Blanco'
p3
sS'slug'
p4
S'gustavo-blanco'
p5
s.(dp0
S'crawled'
p1
I0
sS'name'
p2
S'Tom\xc3\xa1s Vaclik'
p3
sS'slug'
p4
S'tomas-vaclik'
p5
s.(dp0
S'crawled'
p1
I0
sS'name'
p2
S'Mirko Salvi'
p3
sS'slug'
p4
S'mirko-salvi'
p5
s.(dp0
S'crawled'
p1
I0
sS'name'
p2
S'Germano Vailati'
p3
sS'slug'
p4
S'germano-vailati'
p5
s.(dp0
S'crawled'
p1
I0
sS'name'
p2
S'Antonio Signori'
p3
sS'slug'
p4
S'omar-gaber'
p5
s.(dp0
S'crawled'
p1
I0
sS'name'
p2
S'Omar Gaber'
p3
sS'slug'
p4
S'leo-lacroix'
p5
s.(dp0
S'crawled'
p1
I0
sS'name'
p2
S'Leo Lacroix'
p3
sS'slug'
p4
S'michael-lang'
p5
s.(dp0
S'crawled'
p1
I0
sS'name'
p2
S'Michael Lang'
p3
sS'slug'
p4
S'marek-suchy'
p5
s.(dp0
S'crawled'
p1
I0
sS'name'
p2
S'Marek Suchy'
p3
sS'slug'
p4
S'eder-balanta'
p5
s.(dp0
S'crawled'
p1
I0
sS'name'
p2
S'\xc3\x89der Balanta'
p3
sS'slug'
p4
S'blas-riveros'
p5
s.(dp0
S'crawled'
p1
I0
sS'name'
p2
S'Bl\xc3\xa1s Riveros'
p3
sS'slug'
p4
S'raoul-petretta'
p5
s.(dp0
S'crawled'
p1
I0
sS'name'
p2
S'Raoul Petretta'
p3
sS'slug'
p4
S'pedro-pacheco'
p5
s.(dp0
S'crawled'
p1
I0
sS'name'
p2
S'Pedro Pacheco'
p3
sS'slug'
p4
S'luca-zuffi'
p5
s.(dp0
S'crawled'
p1
I0
sS'name'
p2
S'Yves Kaiser'
p3
sS'slug'
p4
S'renato-steffen'
p5
s.(dp0
S'crawled'
p1
I0
sS'name'
p2
S'Noah Okafor'
p3
sS'slug'
p4
S'valentin-stocker'
p5
s.(dp0
S'crawled'
p1
I0
sS'name'
p2
S'Martin Liechti'
p3
sS'slug'
p4
S'alexander-fransson'
p5
s.(dp0
S'crawled'
p1
I0
sS'name'
p2
S'Luca Zuffi'
p3
sS'slug'
p4
S'geoffroy-serey-die'
p5
s.(dp0
S'crawled'
p1
I0
sS'name'
p2
S'Samuele Campo'
p3
sS'slug'
p4
S'fabian-frei'
p5
s.(dp0
S'crawled'
p1
I0
sS'name'
p2
S'Renato Steffen'
p3
sS'slug'
p4
S'mohammed-elyounoussi'
p5
s.(dp0
S'crawled'
p1
I0
sS'name'
p2
S'Valentin Stocker'
p3
sS'slug'
p4
S'derek-kutesa'
p5
s.(dp0
S'crawled'
p1
I0
sS'name'
p2
S'Alexander Franss'
p3
sS'slug'
p4
S'dominik-schmid'
p5
s.(dp0
S'crawled'
p1
I0
sS'name'
p2
S'Geoffroy Serey D'
p3
sS'slug'
p4
S'kevin-bua'
p5
s.(dp0
S'crawled'
p1
I0
sS'name'
p2
S'Fabian Frei'
p3
sS'slug'
p4
S'taulant-xhaka'
p5
s.(dp0
S'crawled'
p1
I0
sS'name'
p2
S'Mohamed Elyounou'
p3
sS'slug'
p4
S'davide-calla'
p5
s.(dp0
S'crawled'
p1
I0
sS'name'
p2
S'Dereck Kutesa'
p3
sS'slug'
p4
S'ricky-van-wolfswinkel'
p5
s.(dp0
S'crawled'
p1
I0
sS'name'
p2
S'Dominik Schmid'
p3
sS'slug'
p4
S'andraz-sporar'
p5
s.(dp0
S'crawled'
p1
I0
sS'name'
p2
S'Kevin Bua'
p3
sS'slug'
p4
S'dimitri-oberlin'
p5
s.(dp0
S'crawled'
p1
I0
sS'name'
p2
S'Taulant Xhaka'
p3
sS'slug'
p4
S'albian-ajeti'
p5
s.(dp0
S'crawled'
p1
I0
sS'name'
p2
S'Davide Call\xc3\xa0'
p3
sS'slug'
p4
S'neftali-manzambi'
p5
s.(dp0
S'crawled'
p1
I0
sS'name'
p2
S'Ricky van Wolfsw'
p3
sS'slug'
p4
S'cedric-itten'
p5
s.(dp0
S'crawled'
p1
I0
sS'name'
p2
S'Andraz Sporar'
p3
sS'slug'
p4
S'afimico-pululu'
p5
s.(dp0
S'crawled'
p1
I0
sS'name'
p2
S'Craig Gordon'
p3
sS'slug'
p4
S'craig-gordon'
p5
s.(dp0
S'crawled'
p1
I0
sS'name'
p2
S'Dorus de Vries'
p3
sS'slug'
p4
S'dorus-de-vries'
p5
s.(dp0
S'crawled'
p1
I0
sS'name'
p2
S'Scott Bain'
p3
sS'slug'
p4
S'ross-doohan'
p5
s.(dp0
S'crawled'
p1
I0
sS'name'
p2
S'Ross Doohan'
p3
sS'slug'
p4
S'conor-hazard'
p5
s.(dp0
S'crawled'
p1
I0
sS'name'
p2
S'Conor Hazard'
p3
sS'slug'
p4
S'jack-hendry'
p5
s.(dp0
S'crawled'
p1
I0
sS'name'
p2
S'Jack Hendry'
p3
sS'slug'
p4
S'jozo-simunovic'
p5
s.(dp0
S'crawled'
p1
I0
sS'name'
p2
S'Jozo Simunovic'
p3
sS'slug'
p4
S'cristian-gamboa'
p5
s.(dp0
S'crawled'
p1
I0
sS'name'
p2
S'Cristian Gamboa'
p3
sS'slug'
p4
S'dedryck-boyata'
p5
s.(dp0
S'crawled'
p1
I0
sS'name'
p2
S'Dedryck Boyata'
p3
sS'slug'
p4
S'mikael-lustig'
p5
s.(dp0
S'crawled'
p1
I0
sS'name'
p2
S'Mikael Lustig'
p3
sS'slug'
p4
S'erik-sviatchenko'
p5
s.(dp0
S'crawled'
p1
I0
sS'name'
p2
S'Erik Sviatchenko'
p3
sS'slug'
p4
S'marvin-compper'
p5
s.(dp0
S'crawled'
p1
I0
sS'name'
p2
S'Marvin Compper'
p3
sS'slug'
p4
S'jamie-mccart'
p5
s.(dp0
S'crawled'
p1
I0
sS'name'
p2
S'Jamie McCart'
p3
sS'slug'
p4
S'anthony-ralston'
p5
s.(dp0
S'crawled'
p1
I0
sS'name'
p2
S'Ewan Henderson'
p3
sS'slug'
p4
S'kieran-tierney'
p5
s.(dp0
S'crawled'
p1
I0
sS'name'
p2
S'Anthony Ralston'
p3
sS'slug'
p4
S'charly-musonda'
p5
s.(dp0
S'crawled'
p1
I0
sS'name'
p2
S'Kieran Tierney'
p3
sS'slug'
p4
S'nir-bitton'
p5
s.(dp0
S'crawled'
p1
I0
sS'name'
p2
S'Charly Musonda'
p3
sS'slug'
p4
S'patrick-roberts'
p5
s.(dp0
S'crawled'
p1
I0
sS'name'
p2
S'Kerr McInroy'
p3
sS'slug'
p4
S'scott-brown'
p5
s.(dp0
S'crawled'
p1
I0
sS'name'
p2
S'Nir Bitton'
p3
sS'slug'
p4
S'scott-sinclair'
p5
s.(dp0
S'crawled'
p1
I0
sS'name'
p2
S'Patrick Roberts'
p3
sS'slug'
p4
S'stuart-armstrong'
p5
s.(dp0
S'crawled'
p1
I0
sS'name'
p2
S'Scott Brown'
p3
sS'slug'
p4
S'jonny-hayes'
p5
s.(dp0
S'crawled'
p1
I0
sS'name'
p2
S'Scott Sinclair'
p3
sS'slug'
p4
S'tomas-rogic'
p5
s.(dp0
S'crawled'
p1
I0
sS'name'
p2
S'Stuart Armstrong'
p3
sS'slug'
p4
S'olivier-ntcham'
p5
s.(dp0
S'crawled'
p1
I0
sS'name'
p2
S'Jonny Hayes'
p3
sS'slug'
p4
S'kundai-benyu'
p5
s.(dp0
S'crawled'
p1
I0
sS'name'
p2
S'Tomas Rogic'
p3
sS'slug'
p4
S'kristoffer-ajer'
p5
s.(dp0
S'crawled'
p1
I0
sS'name'
p2
S'Olivier Ntcham'
p3
sS'slug'
p4
S'callum-mcgregor'
p5
s.(dp0
S'crawled'
p1
I0
sS'name'
p2
S'Kundai Benyu'
p3
sS'slug'
p4
S'liam-henderson'
p5
s.(dp0
S'crawled'
p1
I0
sS'name'
p2
S'Kristoffer Ajer'
p3
sS'slug'
p4
S'kouassi-eboue'
p5
s.(dp0
S'crawled'
p1
I0
sS'name'
p2
S'Callum McGregor'
p3
sS'slug'
p4
S'leigh-griffiths'
p5
s.(dp0
S'crawled'
p1
I0
sS'name'
p2
S'Liam Henderson'
p3
sS'slug'
p4
S'moussa-dembele'
p5
s.(dp0
S'crawled'
p1
I0
sS'name'
p2
S'Eboue Kouassi'
p3
sS'slug'
p4
S'odsonne-edouard'
p5
s.(dp0
S'crawled'
p1
I0
sS'name'
p2
S'Leigh Griffiths'
p3
sS'slug'
p4
S'james-forrest'
p5
s.(dp0
S'crawled'
p1
I0
sS'name'
p2
S'Moussa Dembele'
p3
sS'slug'
p4
S'calvin-miller'
p5
s.(dp0
S'crawled'
p1
I0
sS'name'
p2
S'Odsonne Edouard'
p3
sS'slug'
p4
S'michael-johnston'
p5
s.(dp0
S'crawled'
p1
I0
sS'name'
p2
S'James Forrest'
p3
sS'slug'
p4
S'jack-aitchison'
p5
s.(dp0
S'crawled'
p1
I0
sS'name'
p2
S'Fabio Coltorti'
p3
sS'slug'
p4
S'fabio-coltorti'
p5
s.(dp0
S'crawled'
p1
I0
sS'name'
p2
S'Philipp K\xc3\xb6hn'
p3
sS'slug'
p4
S'philipp-kohn'
p5
s.(dp0
S'crawled'
p1
I0
sS'name'
p2
S'Yvon Mvogo'
p3
sS'slug'
p4
S'yvon-mvogo'
p5
s.(dp0
S'crawled'
p1
I0
sS'name'
p2
S'P\xc3\xa9ter Gul\xc3\xa1csi'
p3
sS'slug'
p4
S'peter-gulacsi'
p5
s.(dp0
S'crawled'
p1
I0
sS'name'
p2
S'Bernardo'
p3
sS'slug'
p4
S'bernardo-fernandes-da-silva-junior'
p5
s.(dp0
S'crawled'
p1
I0
sS'name'
p2
S'Willi Orban'
p3
sS'slug'
p4
S'willi-orban'
p5
s.(dp0
S'crawled'
p1
I0
sS'name'
p2
S'Dayotchanculle U'
p3
sS'slug'
p4
S'dayotchanculle-upamecano'
p5
s.(dp0
S'crawled'
p1
I0
sS'name'
p2
S'Ibrahima Konat\xc3\xa9'
p3
sS'slug'
p4
S'ibrahima-konate'
p5
s.(dp0
S'crawled'
p1
I0
sS'name'
p2
S'Lukas Klosterman'
p3
sS'slug'
p4
S'lukas-klostermann'
p5
s.(dp0
S'crawled'
p1
I0
sS'name'
p2
S'Benno Schmitz'
p3
sS'slug'
p4
S'benno-schmitz'
p5
s.(dp0
S'crawled'
p1
I0
sS'name'
p2
S'Marcel Halstenbe'
p3
sS'slug'
p4
S'marcel-halstenberg'
p5
s.(dp0
S'crawled'
p1
I0
sS'name'
p2
S'Marcel Sabitzer'
p3
sS'slug'
p4
S'marcel-sabitzer'
p5
s.(dp0
S'crawled'
p1
I0
sS'name'
p2
S'Naby Keita'
p3
sS'slug'
p4
S'naby-keita'
p5
s.(dp0
S'crawled'
p1
I0
sS'name'
p2
S'Stefan Ilsanker'
p3
sS'slug'
p4
S'stefan-ilsanker'
p5
s.(dp0
S'crawled'
p1
I0
sS'name'
p2
S'Dominik Kaiser'
p3
sS'slug'
p4
S'dominik-kaiser'
p5
s.(dp0
S'crawled'
p1
I0
sS'name'
p2
S'Konrad Laimer'
p3
sS'slug'
p4
S'konrad-laimer'
p5
s.(dp0
S'crawled'
p1
I0
sS'name'
p2
S'Diego Demme'
p3
sS'slug'
p4
S'diego-demme'
p5
s.(dp0
S'crawled'
p1
I0
sS'name'
p2
S'Kevin Kampl'
p3
sS'slug'
p4
S'kevin-kampl'
p5
s.(dp0
S'crawled'
p1
I0
sS'name'
p2
S'Yussuf Poulsen'
p3
sS'slug'
p4
S'yussuf-poulsen'
p5
s.(dp0
S'crawled'
p1
I0
sS'name'
p2
S'Emil Forsberg'
p3
sS'slug'
p4
S'emil-forsberg'
p5
s.(dp0
S'crawled'
p1
I0
sS'name'
p2
S'Timo Werner'
p3
sS'slug'
p4
S'timo-werner'
p5
s.(dp0
S'crawled'
p1
I0
sS'name'
p2
S'Bruma'
p3
sS'slug'
p4
S'bruma'
p5
s.(dp0
S'crawled'
p1
I0
sS'name'
p2
S'Ademola Lookman'
p3
sS'slug'
p4
S'ademola-lookman'
p5
s.(dp0
S'crawled'
p1
I0
sS'name'
p2
S'Nicolas-Gerrit K'
p3
sS'slug'
p4
S'nicolas-gerrit-kuhn'
p5
s.(dp0
S'crawled'
p1
I0
sS'name'
p2
S'Jean-K\xc3\xa9vin Augu'
p3
sS'slug'
p4
S'jean-kevin-augustin'
p5
s.(dp0
S'crawled'
p1
I0
sS'name'
p2
S'Federico Palacio'
p3
sS'slug'
p4
S'federico-palacios'
p5
s.(dp0
S'crawled'
p1
I0
sS'name'
p2
S'Andr\xc3\xa9 Onana'
p3
sS'slug'
p4
S'andre-onana'
p5
s.(dp0
S'crawled'
p1
I0
sS'name'
p2
S'Benjamin van Lee'
p3
sS'slug'
p4
S'benjamin-van-leer'
p5
s.(dp0
S'crawled'
p1
I0
sS'name'
p2
S'Norbert Alblas'
p3
sS'slug'
p4
S'norbert-alblas'
p5
s.(dp0
S'crawled'
p1
I0
sS'name'
p2
S'Kostas Lamprou'
p3
sS'slug'
p4
S'kostas-lamprou'
p5
s.(dp0
S'crawled'
p1
I0
sS'name'
p2
S'Jo\xc3\xabl Veltman'
p3
sS'slug'
p4
S'joel-veltman'
p5
s.(dp0
S'crawled'
p1
I0
sS'name'
p2
S'Matthijs de Ligt'
p3
sS'slug'
p4
S'matthijs-de-ligt'
p5
s.(dp0
S'crawled'
p1
I0
sS'name'
p2
S'Maximilian W\xc3\xb6be'
p3
sS'slug'
p4
S'maximilian-wober'
p5
s.(dp0
S'crawled'
p1
I0
sS'name'
p2
S'Davinson S\xc3\xa1nche'
p3
sS'slug'
p4
S'davinson-sanchez'
p5
s.(dp0
S'crawled'
p1
I0
sS'name'
p2
S'Daley Sinkgraven'
p3
sS'slug'
p4
S'daley-sinkgraven'
p5
s.(dp0
S'crawled'
p1
I0
sS'name'
p2
S'Nick Viergever'
p3
sS'slug'
p4
S'nick-viergever'
p5
s.(dp0
S'crawled'
p1
I0
sS'name'
p2
S'Luis Orejuela'
p3
sS'slug'
p4
S'mitchell-dijks'
p5
s.(dp0
S'crawled'
p1
I0
sS'name'
p2
S'Nicol\xc3\xa1s Tagliaf'
p3
sS'slug'
p4
S'rasmus-nissen-kristensen'
p5
s.(dp0
S'crawled'
p1
I0
sS'name'
p2
S'Mitchell Dijks'
p3
sS'slug'
p4
S'donny-van-de-beek'
p5
s.(dp0
S'crawled'
p1
I0
sS'name'
p2
S'Leon Bergsma'
p3
sS'slug'
p4
S'hakim-ziyech'
p5
s.(dp0
S'crawled'
p1
I0
sS'name'
p2
S'Rasmus Kristense'
p3
sS'slug'
p4
S'robert-muric'
p5
s.(dp0
S'crawled'
p1
I0
sS'name'
p2
S'Mitchel Bakker'
p3
sS'slug'
p4
S'lasse-schone'
p5
s.(dp0
S'crawled'
p1
I0
sS'name'
p2
S'Noa Lang'
p3
sS'slug'
p4
S'frenkie-de-jong'
p5
s.(dp0
S'crawled'
p1
I0
sS'name'
p2
S'Donny van de Bee'
p3
sS'slug'
p4
S'siem-de-jong'
p5
s.(dp0
S'crawled'
p1
I0
sS'name'
p2
S'Hakim Ziyech'
p3
sS'slug'
p4
S'klaas-jan-huntelaar'
p5
s.(dp0
S'crawled'
p1
I0
sS'name'
p2
S'Carel Eiting'
p3
sS'slug'
p4
S'amin-younes'
p5
s.(dp0
S'crawled'
p1
I0
sS'name'
p2
S'Robert Muric'
p3
sS'slug'
p4
S'vaclav-cerny'
p5
s.(dp0
S'crawled'
p1
I0
sS'name'
p2
S'Lasse Sch\xc3\xb6ne'
p3
sS'slug'
p4
S'mateo-cassierra'
p5
s.(dp0
S'crawled'
p1
I0
sS'name'
p2
S'Frenkie de Jong'
p3
sS'slug'
p4
S'kasper-dolberg'
p5
s.(dp0
S'crawled'
p1
I0
sS'name'
p2
S'Kenneth Vermeer'
p3
sS'slug'
p4
S'kenneth-vermeer'
p5
s.(dp0
S'crawled'
p1
I0
sS'name'
p2
S'Justin Bijlow'
p3
sS'slug'
p4
S'justin-bijlow'
p5
s.(dp0
S'crawled'
p1
I0
sS'name'
p2
S'Brad Jones'
p3
sS'slug'
p4
S'brad-jones'
p5
s.(dp0
S'crawled'
p1
I0
sS'name'
p2
S'Ram\xc3\xb3n ten Hove'
p3
sS'slug'
p4
S'ramon-ten-hove'
p5
s.(dp0
S'crawled'
p1
I0
sS'name'
p2
S'Elber Evora'
p3
sS'slug'
p4
S'miquel-nelom'
p5
s.(dp0
S'crawled'
p1
I0
sS'name'
p2
S'Jordie Van Leeuw'
p3
sS'slug'
p4
S'bart-nieuwkoop'
p5
s.(dp0
S'crawled'
p1
I0
sS'name'
p2
S'Miquel Nelom'
p3
sS'slug'
p4
S'sven-van-beek'
p5
s.(dp0
S'crawled'
p1
I0
sS'name'
p2
S'Lutsharel Geertr'
p3
sS'slug'
p4
S'jerry-st.-juste'
p5
s.(dp0
S'crawled'
p1
I0
sS'name'
p2
S'Bart Nieuwkoop'
p3
sS'slug'
p4
S'ridgeciano-haps'
p5
s.(dp0
S'crawled'
p1
I0
sS'name'
p2
S'Sven van Beek'
p3
sS'slug'
p4
S'jan-arie-van-der-heijden'
p5
s.(dp0
S'crawled'
p1
I0
sS'name'
p2
S'Jeremiah St. Jus'
p3
sS'slug'
p4
S'kevin-diks'
p5
s.(dp0
S'crawled'
p1
I0
sS'name'
p2
S'Ridgeciano Haps'
p3
sS'slug'
p4
S'renato-tapia'
p5
s.(dp0
S'crawled'
p1
I0
sS'name'
p2
S'Jan-Arie van der'
p3
sS'slug'
p4
S'eric-botteghin'
p5
s.(dp0
S'crawled'
p1
I0
sS'name'
p2
S'Boyd Reith'
p3
sS'slug'
p4
S'tyrell-malacia'
p5
s.(dp0
S'crawled'
p1
I0
sS'name'
p2
S'Noah Lewis'
p3
sS'slug'
p4
S'karim-el-ahmadi'
p5
s.(dp0
S'crawled'
p1
I0
sS'name'
p2
S'Kevin Diks'
p3
sS'slug'
p4
S'tonny-vilhena'
p5
s.(dp0
S'crawled'
p1
I0
sS'name'
p2
S'Renato Tapia'
p3
sS'slug'
p4
S'sofyan-amrabat'
p5
s.(dp0
S'crawled'
p1
I0
sS'name'
p2
S'Eric Botteghin'
p3
sS'slug'
p4
S'jens-toornstra'
p5
s.(dp0
S'crawled'
p1
I0
sS'name'
p2
S'Tyrell Malacia'
p3
sS'slug'
p4
S'emil-hansson'
p5
s.(dp0
S'crawled'
p1
I0
sS'name'
p2
S'Karim El Ahmadi'
p3
sS'slug'
p4
S'jordy-wehrmann'
p5
s.(dp0
S'crawled'
p1
I0
sS'name'
p2
S'Tonny Vilhena'
p3
sS'slug'
p4
S'michiel-kramer'
p5
s.(dp0
S'crawled'
p1
I0
sS'name'
p2
S'Sofyan Amrabat'
p3
sS'slug'
p4
S'jean-paul-boetius'
p5
s.(dp0
S'crawled'
p1
I0
sS'name'
p2
S'Jens Toornstra'
p3
sS'slug'
p4
S'nicolai-jorgensen'
p5
s.(dp0
S'crawled'
p1
I0
sS'name'
p2
S'Emil Hansson'
p3
sS'slug'
p4
S'sam-larsson'
p5
s.(dp0
S'crawled'
p1
I0
sS'name'
p2
S'Jordy Wehrmann'
p3
sS'slug'
p4
S'bilal-basacikoglu'
p5
s.(dp0
S'crawled'
p1
I0
sS'name'
p2
S'Michiel Kramer'
p3
sS'slug'
p4
S'steven-berghuis'
p5
s.(dp0
S'crawled'
p1
I0
sS'name'
p2
S'Jean-Paul Bo\xc3\xabti'
p3
sS'slug'
p4
S'robin-van-persie'
p5
s.(dp0
S'crawled'
p1
I0
sS'name'
p2
S'Nicolai J\xc3\xb8rgens'
p3
sS'slug'
p4
S'dylan-vente'
p5
s.(dp0
S'crawled'
p1
I0
sS'name'
p2
S'Sam Larsson'
p3
sS'slug'
p4
S'cheick-toure-toure'
p5
s.